EXPORTS
    _Z10XMLGetUIntPKcS0_jS0_P3XML @1
    _Z10XMLSetUIntPKcS0_jS0_P3XML @2
    _Z11XMLGetFloatPKcS0_fS0_P3XML @3
    _Z11XMLGetInt64PKcS0_xS0_P3XML @4
    _Z11XMLSetFloatPKcS0_fS0_P3XML @5
    _Z11XMLSetInt64PKcS0_xS0_P3XML @6
    _Z12XMLGetStringPKcS0_S0_PcjS0_P3XML @7
    _Z12XMLGetUInt64PKcS0_yS0_P3XML @8
    _Z12XMLSetStringPKcS0_PcS0_P3XML @9
    _Z12XMLSetStringPKcS0_PwS0_P3XML @10
    _Z12XMLSetUInt64PKcS0_yS0_P3XML @11
    _Z13XMLGetStringAPKcS0_S0_PcjS0_P3XMLi @12
    _Z13XMLGetStringWPKcS0_PKwPwiS0_P3XMLi @13
    _Z13XMLSetStringAPKcS0_S0_S0_ @14
    _Z13XMLSetStringWPKcS0_PKwS0_ @15
    _Z14XMLElementfcmpPKvS0_ @16
    _Z14XMLGetAllItemsPKcPPcS0_ @17
    _Z15XMLVariablefcmpPKvS0_ @18
    _Z16XMLGetBinaryDataPKcS0_S0_PcjS0_P3XML @19
    _Z16XMLRenameElementPKcS0_S0_P3XML @20
    _Z16XMLSetBinaryDataPKcS0_PciS0_P3XML @21
    _Z18XMLGetAllVariablesPKcPPcS2_S0_ @22
    _Z9XMLGetIntPKcS0_iS0_P3XML @23
    _Z9XMLSetIntPKcS0_iS0_P3XML @24
    _ZN10XMLComment10SetCommentEPKc @25
    _ZN10XMLComment11MemoryUsageEv @26
    _ZN10XMLComment13IntegrityTestEv @27
    _ZN10XMLComment14CompressMemoryEv @28
    _ZN10XMLComment14ExportToBinaryEv @29
    _ZN10XMLComment16ImportFromBinaryERK3BDC @30
    _ZN10XMLComment7CompareEPS_ @31
    _ZN10XMLComment9DuplicateEv @32
    _ZN10XMLComment9SetParentEP10XMLElementi @33
    _ZN10XMLCommentC1EP10XMLElementiPKcPKw @34
    _ZN10XMLCommentC1ERKS_ @35
    _ZN10XMLCommentC2EP10XMLElementiPKcPKw @36
    _ZN10XMLCommentC2ERKS_ @37
    _ZN10XMLCommentD1Ev @38
    _ZN10XMLCommentD2Ev @39
    _ZN10XMLCommentaSERKS_ @40
    _ZN10XMLContent11MemoryUsageEv @41
    _ZN10XMLContent13IntegrityTestEv @42
    _ZN10XMLContent13SetBinaryModeEb @43
    _ZN10XMLContent14CompressMemoryEv @44
    _ZN10XMLContent14ExportToBinaryEv @45
    _ZN10XMLContent14GetBinaryValueEPPcPj @46
    _ZN10XMLContent16ImportFromBinaryERK3BDC @47
    _ZN10XMLContent7CompareEPS_ @48
    _ZN10XMLContent8SetValueEPKcii @49
    _ZN10XMLContent9DuplicateEv @50
    _ZN10XMLContent9GetValueSEv @51
    _ZN10XMLContent9SetParentEP10XMLElementi @52
    _ZN10XMLContentC1EP10XMLElementiPKciiPKw @53
    _ZN10XMLContentC1ERKS_ @54
    _ZN10XMLContentC2EP10XMLElementiPKciiPKw @55
    _ZN10XMLContentC2ERKS_ @56
    _ZN10XMLContentD1Ev @57
    _ZN10XMLContentD2Ev @58
    _ZN10XMLContentaSERKS_ @59
    _ZN10XMLElement10AddCommentEP10XMLCommenti @60
    _ZN10XMLElement10AddCommentEPKciPKw @61
    _ZN10XMLElement10AddContentEP10XMLContenti @62
    _ZN10XMLElement10AddContentEPKciiPKw @63
    _ZN10XMLElement10AddElementEPKcPKw @64
    _ZN10XMLElement10AddElementEPS_ @65
    _ZN10XMLElement10GetContentEv @66
    _ZN10XMLElement10IsTemporalEv @67
    _ZN10XMLElement10SetContentEPKc @68
    _ZN10XMLElement11AddVariableEP11XMLVariable @69
    _ZN10XMLElement11AddVariableEPKcS1_PKwS3_ @70
    _ZN10XMLElement11FindElementEPKc @71
    _ZN10XMLElement11FindElementEPS_ @72
    _ZN10XMLElement11GetChildrenEv @73
    _ZN10XMLElement11GetCommentsEv @74
    _ZN10XMLElement11GetContentsEv @75
    _ZN10XMLElement11MemoryUsageEv @76
    _ZN10XMLElement11MoveElementEjj @77
    _ZN10XMLElement11RemoveCDataEj @78
    _ZN10XMLElement11SetTemporalEb @79
    _ZN10XMLElement12FindElementZEPKcbPcb @80
    _ZN10XMLElement12FindElementZEPS_ @81
    _ZN10XMLElement12FindVariableEP11XMLVariable @82
    _ZN10XMLElement12FindVariableEPKc @83
    _ZN10XMLElement12GetCDatasNumEv @84
    _ZN10XMLElement12GetDeepLevelEv @85
    _ZN10XMLElement12GetVariablesEv @86
    _ZN10XMLElement12SortElementsEPFiPKvS1_E @87
    _ZN10XMLElement13BorrowElementEPS_j @88
    _ZN10XMLElement13FindVariableZEP11XMLVariable @89
    _ZN10XMLElement13FindVariableZEPKcbS1_b @90
    _ZN10XMLElement13InsertElementEjPS_ @91
    _ZN10XMLElement13IntegrityTestEv @92
    _ZN10XMLElement13ReloadElementEj @93
    _ZN10XMLElement13RemoveCommentEj @94
    _ZN10XMLElement13RemoveContentEj @95
    _ZN10XMLElement13RemoveElementEPS_ @96
    _ZN10XMLElement13RemoveElementEj @97
    _ZN10XMLElement13SortVariablesEPFiPKvS1_E @98
    _ZN10XMLElement13SpaceForCDataEj @99
    _ZN10XMLElement13UnloadElementEj @100
    _ZN10XMLElement13UpdateElementEPS_b @101
    _ZN10XMLElement13VariableValueEPKcS1_ @102
    _ZN10XMLElement13Write16StringEP6_iobufPKc @103
    _ZN10XMLElement14CompressMemoryEv @104
    _ZN10XMLElement14ExportToBinaryEv @105
    _ZN10XMLElement14GetAllChildrenEPPS_j @106
    _ZN10XMLElement14GetChildrenNumEv @107
    _ZN10XMLElement14GetCommentsNumEv @108
    _ZN10XMLElement14GetContentsNumEv @109
    _ZN10XMLElement14GetElementNameEPci @110
    _ZN10XMLElement14GetVariableNumEv @111
    _ZN10XMLElement14RemoveVariableEP11XMLVariable @112
    _ZN10XMLElement14RemoveVariableEj @113
    _ZN10XMLElement14ReplaceElementEjPS_PS0_ @114
    _ZN10XMLElement14SetElementNameEPKcPKw @115
    _ZN10XMLElement15GetElementIndexEPS_ @116
    _ZN10XMLElement15GetElementNameSEi @117
    _ZN10XMLElement15GetElementParamEv @118
    _ZN10XMLElement15RemoveAllCDatasEv @119
    _ZN10XMLElement15SetElementParamEy @120
    _ZN10XMLElement15SpaceForCommentEj @121
    _ZN10XMLElement15SpaceForContentEj @122
    _ZN10XMLElement15SpaceForElementEj @123
    _ZN10XMLElement16GetIndexInParentEv @124
    _ZN10XMLElement16ImportFromBinaryERK3BDC @125
    _ZN10XMLElement16SpaceForVariableEj @126
    _ZN10XMLElement17AddBinaryVariableEPKcS1_i @127
    _ZN10XMLElement17GetAllChildrenNumEj @128
    _ZN10XMLElement17ReloadAllElementsEv @129
    _ZN10XMLElement17RemoveAllCommentsEv @130
    _ZN10XMLElement17RemoveAllContentsEv @131
    _ZN10XMLElement17RemoveAllElementsEv @132
    _ZN10XMLElement18GetElementFullNameEPci @133
    _ZN10XMLElement18RemoveAllVariablesEv @134
    _ZN10XMLElement19GetElementInSectionEPKc @135
    _ZN10XMLElement19SetExportFormattingEP15XMLEXPORTFORMAT @136
    _ZN10XMLElement20RemoveElementAndKeepEjPPS_ @137
    _ZN10XMLElement21RemoveVariableAndKeepEjPP11XMLVariable @138
    _ZN10XMLElement22GetElementUniqueStringEPc @139
    _ZN10XMLElement22RemoveTemporalElementsEb @140
    _ZN10XMLElement23GetUniqueLocationStringEv @141
    _ZN10XMLElement23ReleaseBorrowedElementsEv @142
    _ZN10XMLElement23RemoveTemporalVariablesEb @143
    _ZN10XMLElement23ReserveSpaceForElementsEj @144
    _ZN10XMLElement25DeleteUnloadedElementFileEi @145
    _ZN10XMLElement25ElementFromLocationStringEPKc @146
    _ZN10XMLElement28FindElementWithVariableValueEPKcS1_ @147
    _ZN10XMLElement3elmEPKc @148
    _ZN10XMLElement4CopyEv @149
    _ZN10XMLElement4NextEv @150
    _ZN10XMLElement4PrevEv @151
    _ZN10XMLElement5ClearEv @152
    _ZN10XMLElement6ExportEP6_iobufi13XML_SAVE_MODE15XML_TARGET_MODEP9XMLHeaderP12XMLTransformP16XMLTransformData @153
    _ZN10XMLElement6printcEP6_iobufPS_ii13XML_SAVE_MODE15XML_TARGET_MODE @154
    _ZN10XMLElement7CompareEPS_ @155
    _ZN10XMLElement7DiscardEv @156
    _ZN10XMLElement7GetDeepEv @157
    _ZN10XMLElement7GetTypeEv @158
    _ZN10XMLElement7ReparseEPKci @159
    _ZN10XMLElement8AddCDataEP8XMLCDatai @160
    _ZN10XMLElement8AddCDataEPKciPKw @161
    _ZN10XMLElement8SetValueEPKcS1_ @162
    _ZN10XMLElement8XMLQueryEPKcPPS_j @163
    _ZN10XMLElement9DuplicateEPS_ @164
    _ZN10XMLElement9GetCDatasEv @165
    _ZN10XMLElement9GetParentEv @166
    _ZN10XMLElement9SerializeEv @167
    _ZN10XMLElement9SetParentEPS_ @168
    _ZN10XMLElementC1EPS_PKcibPKw @169
    _ZN10XMLElementC2EPS_PKcibPKw @170
    _ZN10XMLElementD1Ev @171
    _ZN10XMLElementD2Ev @172
    _ZN10XMLElementixEi @173
    _ZN11XMLVariable10IsTemporalEv @174
    _ZN11XMLVariable11GetValueIntEv @175
    _ZN11XMLVariable11MemoryUsageEv @176
    _ZN11XMLVariable11SetTemporalEb @177
    _ZN11XMLVariable11SetValueIntEi @178
    _ZN11XMLVariable12GetValueUIntEv @179
    _ZN11XMLVariable12SetValueUIntEj @180
    _ZN11XMLVariable13GetValueFloatEv @181
    _ZN11XMLVariable13GetValueInt64Ev @182
    _ZN11XMLVariable13IntegrityTestEv @183
    _ZN11XMLVariable13SetValueFloatEf @184
    _ZN11XMLVariable13SetValueInt64Ex @185
    _ZN11XMLVariable14CompressMemoryEv @186
    _ZN11XMLVariable14ExportToBinaryEv @187
    _ZN11XMLVariable14GetBinaryValueEPc @188
    _ZN11XMLVariable14GetValueUInt64Ev @189
    _ZN11XMLVariable14SetBinaryValueEPci @190
    _ZN11XMLVariable14SetValueUInt64Ey @191
    _ZN11XMLVariable15GetOwnerElementEv @192
    _ZN11XMLVariable15SetOwnerElementEP10XMLElement @193
    _ZN11XMLVariable16ImportFromBinaryERK3BDC @194
    _ZN11XMLVariable17SetFormattedValueEPKcz @195
    _ZN11XMLVariable4CopyEv @196
    _ZN11XMLVariable5ClearEv @197
    _ZN11XMLVariable7CompareEPS_ @198
    _ZN11XMLVariable7SetNameEPKciPKw @199
    _ZN11XMLVariable8GetNameSEv @200
    _ZN11XMLVariable8SetValueEPKciPKw @201
    _ZN11XMLVariable9DuplicateEv @202
    _ZN11XMLVariable9GetValueSEv @203
    _ZN11XMLVariableC1EPKcS1_ibPKwS3_ @204
    _ZN11XMLVariableC1ERKS_ @205
    _ZN11XMLVariableC2EPKcS1_ibPKwS3_ @206
    _ZN11XMLVariableC2ERKS_ @207
    _ZN11XMLVariableD1Ev @208
    _ZN11XMLVariableD2Ev @209
    _ZN11XMLVariableaSERKS_ @210
    _ZN13Base64DecoderIPcS0_E6FilterES0_S0_S0_ @211
    _ZN13Base64DecoderIPcS0_E6FinishES0_ @212
    _ZN13Base64EncoderIPcS0_E11EncodeCurr3ERS0_ @213
    _ZN13Base64EncoderIPcS0_E6FilterES0_S0_S0_ @214
    _ZN13Base64EncoderIPcS0_E6FinishES0_ @215
    _ZN1ZIcEC1Ej @216
    _ZN3BDC5clearEv @217
    _ZN3BDC5resetEv @218
    _ZN3BDC6EnsureEy @219
    _ZN3BDC6ResizeEy @220
    _ZN3BDC9AddResizeEy @221
    _ZN3BDCC1ERKS_ @222
    _ZN3BDCC1Ev @223
    _ZN3BDCC1Ey @224
    _ZN3BDCC2ERKS_ @225
    _ZN3BDCC2Ev @226
    _ZN3BDCC2Ey @227
    _ZN3BDCD1Ev @228
    _ZN3BDCD2Ev @229
    _ZN3BDCaSERKS_ @230
    _ZN3BDCeqERKS_ @231
    _ZN3XML10JsonParserEP10XMLElementPKc @232
    _ZN3XML10SetUnicodeEb @233
    _ZN3XML11Base642CharEPciS0_ @234
    _ZN3XML11Char2Base64EPciS0_ @235
    _ZN3XML11MemoryUsageEv @236
    _ZN3XML11ParseStatusEPi @237
    _ZN3XML11SaveOnCloseEb @238
    _ZN3XML11XMLGetValueEPKcS1_Pcj @239
    _ZN3XML11XMLSetValueEPKcS1_Pc @240
    _ZN3XML13IntegrityTestEv @241
    _ZN3XML14CompressMemoryEv @242
    _ZN3XML14ExportToBinaryEv @243
    _ZN3XML14SetRootElementEP10XMLElement @244
    _ZN3XML16ImportFromBinaryERK3BDC @245
    _ZN3XML19SetExportFormattingEP15XMLEXPORTFORMAT @246
    _ZN3XML22RemoveTemporalElementsEv @247
    _ZN3XML24RemoveRootElementAndKeepEv @248
    _ZN3XML4InitEv @249
    _ZN3XML4LoadEPKc13XML_LOAD_MODEP12XMLTransformP16XMLTransformData @250
    _ZN3XML4LockEb @251
    _ZN3XML4SaveEPKc13XML_SAVE_MODE15XML_TARGET_MODEP12XMLTransformP16XMLTransformData @252
    _ZN3XML5ClearEv @253
    _ZN3XML5PasteEPc @254
    _ZN3XML6ExportEP6_iobuf13XML_SAVE_MODE15XML_TARGET_MODEP9XMLHeaderP12XMLTransformP16XMLTransformData @255
    _ZN3XML7CompareEPS_ @256
    _ZN3XML7DoMatchEPKcPcb @257
    _ZN3XML7ReadToZEPKcP12XMLTransformP16XMLTransformDatab @258
    _ZN3XML7VersionEP16XML_VERSION_INFO @259
    _ZN3XML8LoadTextEPKc @260
    _ZN3XML8LoadTextEPKw @261
    _ZN3XML8XMLQueryEPKcS1_PP10XMLElementj @262
    _ZN3XML9GetHeaderEv @263
    _ZN3XML9SetHeaderEP9XMLHeader @264
    _ZN3XML9TestMatchEPKcS1_S1_ @265
    _ZN3XML9VMatchingEPKcPcb @266
    _ZN3XML9XMLDecodeEPKcPc @267
    _ZN3XML9XMLEncodeEPKcPc @268
    _ZN3XMLC1EPKc13XML_LOAD_MODEP12XMLTransformP16XMLTransformData @269
    _ZN3XMLC1ERS_ @270
    _ZN3XMLC1Ev @271
    _ZN3XMLC2EPKc13XML_LOAD_MODEP12XMLTransformP16XMLTransformData @272
    _ZN3XMLC2ERS_ @273
    _ZN3XMLC2Ev @274
    _ZN3XMLD1Ev @275
    _ZN3XMLD2Ev @276
    _ZN3XMLaSERS_ @277
    _ZN4XMLUD1Ev @278
    _ZN8XMLCData11MemoryUsageEv @279
    _ZN8XMLCData13IntegrityTestEv @280
    _ZN8XMLCData14CompressMemoryEv @281
    _ZN8XMLCData14ExportToBinaryEv @282
    _ZN8XMLCData16ImportFromBinaryERK3BDC @283
    _ZN8XMLCData7CompareEPS_ @284
    _ZN8XMLCData8SetCDataEPKc @285
    _ZN8XMLCData9DuplicateEv @286
    _ZN8XMLCData9SetParentEP10XMLElementi @287
    _ZN8XMLCDataC1EP10XMLElementiPKcPKw @288
    _ZN8XMLCDataC1ERKS_ @289
    _ZN8XMLCDataC2EP10XMLElementiPKcPKw @290
    _ZN8XMLCDataC2ERKS_ @291
    _ZN8XMLCDataD1Ev @292
    _ZN8XMLCDataD2Ev @293
    _ZN8XMLCDataaSERKS_ @294
    _ZN9XMLHeader10AddCommentEP10XMLCommenti @295
    _ZN9XMLHeader11GetCommentsEv @296
    _ZN9XMLHeader11MemoryUsageEv @297
    _ZN9XMLHeader11SetEncodingEPKc @298
    _ZN9XMLHeader13IntegrityTestEv @299
    _ZN9XMLHeader13RemoveCommentEj @300
    _ZN9XMLHeader14CompressMemoryEv @301
    _ZN9XMLHeader14ExportToBinaryEv @302
    _ZN9XMLHeader14GetCommentsNumEv @303
    _ZN9XMLHeader15SpaceForCommentEj @304
    _ZN9XMLHeader16ImportFromBinaryERK3BDC @305
    _ZN9XMLHeader17RemoveAllCommentsEv @306
    _ZN9XMLHeader5ClearEv @307
    _ZN9XMLHeader5SetH1EPKcPKw @308
    _ZN9XMLHeader5SetH2EPKcPKw @309
    _ZN9XMLHeader6ExportEP6_iobufi15XML_TARGET_MODEP12XMLTransformP16XMLTransformData @310
    _ZN9XMLHeader7CompareEPS_ @311
    _ZN9XMLHeader9DuplicateEv @312
    _ZN9XMLHeaderC1EPKcPKw @313
    _ZN9XMLHeaderC1ERS_ @314
    _ZN9XMLHeaderC2EPKcPKw @315
    _ZN9XMLHeaderC2ERS_ @316
    _ZN9XMLHeaderD1Ev @317
    _ZN9XMLHeaderD2Ev @318
    _ZN9XMLHeaderaSERS_ @319
    _ZN9XMLHeadercvPKcEv @320
    _ZN9XMLHelper12FindXMLCloseEPc @321
    _ZN9XMLHelper16AddBlankVariableEP10XMLElementPci @322
    _ZN9XMLHelper16ParseElementTreeEP9XMLHeaderP10XMLElementPcPS4_R16XML_PARSE_STATUS @323
    _ZN9XMLHelper3powEii @324
    _ZNK10XMLComment5GetEPEv @325
    _ZNK10XMLCommentcvPKcEv @326
    _ZNK10XMLContent14IsInBinaryModeEv @327
    _ZNK10XMLContent5GetEPEv @328
    _ZNK10XMLContent8GetValueEPci @329
    _ZNK11XMLVariable7GetNameEPci @330
    _ZNK11XMLVariable8GetValueEPci @331
    _ZNK3BDC1pEv @332
    _ZNK3BDC4sizeEv @333
    _ZNK3BDCcvPKcEv @334
    _ZNK3BDCcvPcEv @335
    _ZNK3XML14GetRootElementEv @336
    _ZNK8XMLCData5GetEPEv @337
    _ZNK8XMLCDatacvPKcEv @338
    _ZTI13Base64DecoderIPcS0_E @339 DATA
    _ZTI13Base64EncoderIPcS0_E @340 DATA
    _ZTI9MimeCoderIPcS0_E @341 DATA
    _ZTS13Base64DecoderIPcS0_E @342 DATA
    _ZTS13Base64EncoderIPcS0_E @343 DATA
    _ZTS9MimeCoderIPcS0_E @344 DATA
    _ZTV13Base64DecoderIPcS0_E @345 DATA
    _ZTV13Base64EncoderIPcS0_E @346 DATA
