EXPORTS
    _Z10LoadScriptP10ScriptWrapPKc @1
    _Z10randNormal5Range @2
    _Z11LoadTexturePKcR12SDL_Renderer @3
    _Z11randUniform5Range @4
    _Z12randBinomial5Range @5
    _Z13apply_surfaceiiR12SDL_RendererR11SDL_Textureii @6
    _Z16GetMaxValueSizeTv @7
    _Z17CalculateDistanceRK10math_pointS1_ @8
    _Z6hasherv @9
    _ZN10ScreenInfo12GetScreenLocEv @10
    _ZN10ScreenInfo13SetScreenInfoEjjjj @11
    _ZN10ScreenInfoC1Ev @12
    _ZN10ScreenInfoC2Ev @13
    _ZN10sound_base10Load_SoundEPKc @14
    _ZN10sound_base10Load_SoundEPh @15
    _ZN10sound_base10PlayEffectEi @16
    _ZN10sound_base14addBuff_StringESsi @17
    _ZN10sound_base21Update_Sound_DistanceE10math_pointi @18
    _ZN10sound_base21Update_Sound_PositionEii @19
    _ZN10sound_base21wavReadnDisplayHeaderEPc @20
    _ZN10sound_base4PlayEi @21
    _ZN10sound_base4StopEv @22
    _ZN10sound_base5PauseEv @23
    _ZN10sound_base6SetVolEi @24
    _ZN10sound_base7FadeOutEi @25
    _ZN10sound_base7PutNum2Elii @26
    _ZN10sound_base8SetPointEv @27
    _ZN10sound_base8WriteWavEP6_iobufl @28
    _ZN10sound_base8WriteWavEPhl @29
    _ZN10sound_base9SoundTypeEv @30
    _ZN10sound_baseC1Eb @31
    _ZN10sound_baseC2Eb @32
    _ZN10sound_baseD1Ev @33
    _ZN10sound_baseD2Ev @34
    _ZN11ProgressBar22SetRectangleDimensionsEii @35
    _ZN11ProgressBar4DrawERK12SDL_Renderer @36
    _ZN11ProgressBar6UpdateEii @37
    _ZN11ProgressBarC1EPKcPi10math_pointR12SDL_Rendereri @38
    _ZN11ProgressBarC2EPKcPi10math_pointR12SDL_Rendereri @39
    _ZN11ProgressBarD1Ev @40
    _ZN11ProgressBarD2Ev @41
    _ZN11TimerSystem10PauseTimerEj @42
    _ZN11TimerSystem10StartTimerEj @43
    _ZN11TimerSystem11CreateTimerEv @44
    _ZN11TimerSystem11DeleteTimerEj @45
    _ZN11TimerSystem12UnpauseTimerEj @46
    _ZN11TimerSystem13isTimerPausedEj @47
    _ZN11TimerSystem14isTimerStartedEj @48
    _ZN11TimerSystem5hasIDEj @49
    _ZN11TimerSystem8GetTicksEj @50
    _ZN11TimerSystem9StopTimerEj @51
    _ZN11TimerSystemC1EP4Game @52
    _ZN11TimerSystemC2EP4Game @53
    _ZN11TimerSystemD1Ev @54
    _ZN11TimerSystemD2Ev @55
    _ZN16BinarySearchTreeIj5TimerE10insertNodeERPNS1_8TreeNodeERKjRKS0_ @56
    _ZN16BinarySearchTreeIj5TimerE10removeNodeERPNS1_8TreeNodeERKj @57
    _ZN16BinarySearchTreeIj5TimerE12rem_swapNodeERPNS1_8TreeNodeES4_ @58
    _ZN16BinarySearchTreeIj5TimerE6insertERKjRKS0_ @59
    _ZN16BinarySearchTreeIj5TimerE6removeERKj @60
    _ZN16BinarySearchTreeIj5TimerE8TreeNodeC1ERKjRKS0_PS2_S7_ @61
    _ZN16BinarySearchTreeIj5TimerE8freeTreeEPNS1_8TreeNodeE @62
    _ZN16BinarySearchTreeIj5TimerE9getValRefEPNS1_8TreeNodeERKj @63
    _ZN16BinarySearchTreeIj5TimerEC1Ev @64
    _ZN16BinarySearchTreeIj5TimerED1Ev @65
    _ZN16BinarySearchTreeIj5TimerEixERKj @66
    _ZN4Unit10ApplyBuffsEv @67
    _ZN4Unit10BuffExistsESs @68
    _ZN4Unit10DrawImagesEv @69
    _ZN4Unit10PlaySoundsERK10math_point @70
    _ZN4Unit10RemoveBuffESs @71
    _ZN4Unit11OnCollisionEPS_Ss @72
    _ZN4Unit11ToggleDeathEv @73
    _ZN4Unit11ToggleMeleeEv @74
    _ZN4Unit11isCollidingEPS_ @75
    _ZN4Unit13LoadKeyScriptEPKc @76
    _ZN4Unit13MoveTowardsAIEdc @77
    _ZN4Unit14SetAttackSpeedEi @78
    _ZN4Unit14SetVisionRangeEi @79
    _ZN4Unit14Update_NewTimeEv @80
    _ZN4Unit14Update_OldTimeEv @81
    _ZN4Unit14Update_PhysicsEPS_ @82
    _ZN4Unit15LoadKeyBindingsEPKc @83
    _ZN4Unit15ProcessKeyEventESs @84
    _ZN4Unit15ProcessMouseKeyEjii @85
    _ZN4Unit16SetMovementSpeedEd @86
    _ZN4Unit20GetDefaultDrawObjectEv @87
    _ZN4Unit20ProcessMouseMovementEii @88
    _ZN4Unit5SetADEi @89
    _ZN4Unit5SetAPEi @90
    _ZN4Unit5SetHPEi @91
    _ZN4Unit5SetIDEj @92
    _ZN4Unit6LoadAIEPKc @93
    _ZN4Unit6MoveAIEv @94
    _ZN4Unit7AddBuffESs @95
    _ZN4Unit8AttackAIEPS_ @96
    _ZN4Unit8SetOwnerEP4Game @97
    _ZN4Unit8SetRangeEi @98
    _ZN4Unit8SetTimerEj @99
    _ZN4Unit9ExecuteAIEPS_c @100
    _ZN4UnitC1EiRKSs10math_pointR12SDL_Rendererjbb @101
    _ZN4UnitC2EiRKSs10math_pointR12SDL_Rendererjbb @102
    _ZN4UnitD1Ev @103
    _ZN4UnitD2Ev @104
    _ZN5RangeC1Ejj @105
    _ZN5Timer4stopEv @106
    _ZN5Timer5pauseEv @107
    _ZN5Timer5startEv @108
    _ZN5Timer7unpauseEv @109
    _ZN5TimerC1Ev @110
    _ZN5TimerC2Ev @111
    _ZN7Physics10RelativityEc @112
    _ZN7Physics11SetVelocityEdc @113
    _ZN7Physics11UpdateForceEPS_ibc @114
    _ZN7Physics12Load_PhysicsEPKc @115
    _ZN7Physics13SetForceCountEdc @116
    _ZN7Physics13SetForceCountEic @117
    _ZN7Physics14NewtonianForceEc @118
    _ZN7Physics15Update_PositionEd @119
    _ZN7Physics15Update_VelocityEd @120
    _ZN7Physics18rel_CalculateForceEcb @121
    _ZN7Physics18rel_NewtonianForceEc @122
    _ZN7Physics19Update_AccelerationEv @123
    _ZN7Physics19rel_CalculateForceBEb @124
    _ZN7Physics1GE @125 DATA
    _ZN7Physics1cE @126 DATA
    _ZN7Physics1eE @127 DATA
    _ZN7Physics1kE @128 DATA
    _ZN7Physics2piE @129 DATA
    _ZN7Physics33ChangePlanetGravitationalConstantEd @130
    _ZN7Physics3mu0E @131 DATA
    _ZN7Physics6SetLocERK10math_point @132
    _ZN7Physics7ImpulseE11math_VECTOR @133
    _ZN7Physics8AddForceEdc @134
    _ZN7Physics8FrictionEdb @135
    _ZN7Physics8epsilon0E @136 DATA
    _ZN7PhysicsC1EPKc @137
    _ZN7PhysicsC2EPKc @138
    _ZN7PhysicsD1Ev @139
    _ZN7Trigger11ToggleDeathEv @140
    _ZN7Trigger14ConsumeTriggerEP4GameP4Unit @141
    _ZN7Trigger16UpdateTriggerLocEiii @142
    _ZN7Trigger5SetIDEj @143
    _ZN7TriggerC1EPKc @144
    _ZN7TriggerC1Ev @145
    _ZN7TriggerC2EPKc @146
    _ZN7TriggerC2Ev @147
    _ZN7TriggerD1Ev @148
    _ZN7TriggerD2Ev @149
    _ZN8GameInfo5EMPTYE @150 DATA
    _ZN8GameInfo7SetInfoERKSsS1_S1_S1_S1_S1_jjjjjjjj @151
    _ZN8GameInfoC1Ev @152
    _ZN8GameInfoC2Ev @153
    _ZN9SoundInfo12SetSoundInfoEjjj @154
    _ZN9SoundInfoC1Ev @155
    _ZN9SoundInfoC2Ev @156
    _ZN9__gnu_cxx13new_allocatorISt10_List_nodeISsEE10deallocateEPS2_j @157
    _ZN9__gnu_cxx13new_allocatorISt10_List_nodeISsEE7destroyIS2_EEvPT_ @158
    _ZN9__gnu_cxx13new_allocatorISt10_List_nodeISsEE8allocateEjPKv @159
    _ZN9__gnu_cxx13new_allocatorISt10_List_nodeISsEE9constructIS2_IRKSsEEEvPT_DpOT0_ @160
    _ZN9__gnu_cxx13new_allocatorISt10_List_nodeISsEEC2Ev @161
    _ZN9__gnu_cxx13new_allocatorISt10_List_nodeISsEED2Ev @162
    _ZN9__gnu_cxx13new_allocatorISt13_Rb_tree_nodeISt4pairIKSsP10sound_baseEEE10deallocateEPS7_j @163
    _ZN9__gnu_cxx13new_allocatorISt13_Rb_tree_nodeISt4pairIKSsP10sound_baseEEE7destroyIS7_EEvPT_ @164
    _ZN9__gnu_cxx13new_allocatorISt13_Rb_tree_nodeISt4pairIKSsP10sound_baseEEE8allocateEjPKv @165
    _ZN9__gnu_cxx13new_allocatorISt13_Rb_tree_nodeISt4pairIKSsP10sound_baseEEE9constructIS7_IS2_ISsS5_EEEEvPT_DpOT0_ @166
    _ZN9__gnu_cxx13new_allocatorISt13_Rb_tree_nodeISt4pairIKSsP10sound_baseEEE9constructIS7_IS6_EEEvPT_DpOT0_ @167
    _ZN9__gnu_cxx13new_allocatorISt13_Rb_tree_nodeISt4pairIKSsP10sound_baseEEEC2Ev @168
    _ZN9__gnu_cxx13new_allocatorISt13_Rb_tree_nodeISt4pairIKSsP10sound_baseEEED2Ev @169
    _ZN9__gnu_cxx13new_allocatorISt13_Rb_tree_nodeISt4pairIKSsP9draw_baseEEE10deallocateEPS7_j @170
    _ZN9__gnu_cxx13new_allocatorISt13_Rb_tree_nodeISt4pairIKSsP9draw_baseEEE7destroyIS7_EEvPT_ @171
    _ZN9__gnu_cxx13new_allocatorISt13_Rb_tree_nodeISt4pairIKSsP9draw_baseEEE8allocateEjPKv @172
    _ZN9__gnu_cxx13new_allocatorISt13_Rb_tree_nodeISt4pairIKSsP9draw_baseEEE9constructIS7_IS2_ISsS5_EEEEvPT_DpOT0_ @173
    _ZN9__gnu_cxx13new_allocatorISt13_Rb_tree_nodeISt4pairIKSsP9draw_baseEEE9constructIS7_IS6_EEEvPT_DpOT0_ @174
    _ZN9__gnu_cxx13new_allocatorISt13_Rb_tree_nodeISt4pairIKSsP9draw_baseEEEC2Ev @175
    _ZN9__gnu_cxx13new_allocatorISt13_Rb_tree_nodeISt4pairIKSsP9draw_baseEEED2Ev @176
    _ZN9__gnu_cxx13new_allocatorISt13_Rb_tree_nodeISt4pairIKtSsEEE10deallocateEPS5_j @177
    _ZN9__gnu_cxx13new_allocatorISt13_Rb_tree_nodeISt4pairIKtSsEEE7destroyIS5_EEvPT_ @178
    _ZN9__gnu_cxx13new_allocatorISt13_Rb_tree_nodeISt4pairIKtSsEEE8allocateEjPKv @179
    _ZN9__gnu_cxx13new_allocatorISt13_Rb_tree_nodeISt4pairIKtSsEEE9constructIS5_IRKS4_EEEvPT_DpOT0_ @180
    _ZN9__gnu_cxx13new_allocatorISt13_Rb_tree_nodeISt4pairIKtSsEEEC2ERKS6_ @181
    _ZN9__gnu_cxx13new_allocatorISt13_Rb_tree_nodeISt4pairIKtSsEEEC2Ev @182
    _ZN9__gnu_cxx13new_allocatorISt13_Rb_tree_nodeISt4pairIKtSsEEED2Ev @183
    _ZN9__gnu_cxx13new_allocatorISt4pairIKtSsEEC2ERKS4_ @184
    _ZN9__gnu_cxx13new_allocatorISt4pairIKtSsEEC2Ev @185
    _ZN9__gnu_cxx13new_allocatorISt4pairIKtSsEED2Ev @186
    _ZN9draw_base12ClearTextureEv @187
    _ZN9draw_base12Load_TextureEPKcR12SDL_Rendereri @188
    _ZN9draw_base12setBlendModeE13SDL_BlendMode @189
    _ZN9draw_base13apply_surfaceEiiR12SDL_Renderer @190
    _ZN9draw_base17SetTextureFromRefER11SDL_Texture @191
    _ZN9draw_base21SetTextureFromPointerEP11SDL_Texture @192
    _ZN9draw_base8setAlphaEh @193
    _ZN9draw_base8setColorEhhh @194
    _ZN9draw_baseC1Ev @195
    _ZN9draw_baseC2Ev @196
    _ZN9draw_baseD1Ev @197
    _ZN9draw_baseD2Ev @198
    _ZNK10ScreenInfo12GetScreenBPPEv @199
    _ZNK10ScreenInfo14GetScreenWidthEv @200
    _ZNK10ScreenInfo15GetScreenHeightEv @201
    _ZNK10ScreenInfo18GetMaxFramesPerSecEv @202
    _ZNK10sound_base15isLoopingEffectEv @203
    _ZNK10sound_base9isPlayingEv @204
    _ZNK11ProgressBar17GetRectangleWidthEv @205
    _ZNK11ProgressBar18GetRectangleHeightEv @206
    _ZNK16BinarySearchTreeIj5TimerE10searchNodeEPNS1_8TreeNodeERKjRS0_ @207
    _ZNK16BinarySearchTreeIj5TimerE5emptyEv @208
    _ZNK16BinarySearchTreeIj5TimerE6searchERKjRS0_ @209
    _ZNK4Unit10GetPhysicsEv @210
    _ZNK4Unit12GetBlitOrderEv @211
    _ZNK4Unit13GetTimeChangeEv @212
    _ZNK4Unit14GetAttackSpeedEv @213
    _ZNK4Unit14GetVisionRangeEv @214
    _ZNK4Unit16GetMovementSpeedEv @215
    _ZNK4Unit5GetADEv @216
    _ZNK4Unit5GetAPEv @217
    _ZNK4Unit5GetHPEv @218
    _ZNK4Unit5GetIDEv @219
    _ZNK4Unit5isNPCEv @220
    _ZNK4Unit7GetNameEv @221
    _ZNK4Unit7GetTypeEv @222
    _ZNK4Unit7isMeleeEv @223
    _ZNK4Unit8GetDeathEv @224
    _ZNK4Unit8GetRangeEv @225
    _ZNK5Timer10is_startedEv @226
    _ZNK5Timer9get_ticksEv @227
    _ZNK5Timer9is_pausedEv @228
    _ZNK7Physics10GetGravityEv @229
    _ZNK7Physics11GetDistanceERK10math_point @230
    _ZNK7Physics11GetVelocityEc @231
    _ZNK7Physics11isUnmovableEv @232
    _ZNK7Physics13GetBMagnitudeEv @233
    _ZNK7Physics13GetElasticityEv @234
    _ZNK7Physics13GetForceCountEc @235
    _ZNK7Physics15GetB2DDirectionEv @236
    _ZNK7Physics20math_CalculateEFieldERK10math_point @237
    _ZNK7Physics20math_CalculateEFieldEi @238
    _ZNK7Physics22math_CalculateMomentumEPS_S0_ @239
    _ZNK7Physics30math_CalculateDirectionDegreesEii @240
    _ZNK7Physics36math_CalculateForceFromMagneticFieldESsd @241
    _ZNK7Physics39math_CalculateForceFromChargedParticlesEdRK10math_point @242
    _ZNK7Physics5GetMUEv @243
    _ZNK7Physics6GetLocEv @244
    _ZNK7Physics7GetMassEv @245
    _ZNK7Physics9GetChargeEv @246
    _ZNK7Physics9math_SignEPS_b @247
    _ZNK7Physics9math_SignEPS_c @248
    _ZNK7Trigger15isUnitOnTriggerEP4Unit @249
    _ZNK7Trigger5GetIDEv @250
    _ZNK7Trigger6GetLocEv @251
    _ZNK7Trigger8GetDeathEv @252
    _ZNK8GameInfo10GetModNameEv @253
    _ZNK8GameInfo11GetGameNameEv @254
    _ZNK8GameInfo13GetBlitLevelsEv @255
    _ZNK8GameInfo16GetRootDirectoryEv @256
    _ZNK9SoundInfo16GetSoundChannelsEv @257
    _ZNK9SoundInfo17GetSoundChunkSizeEv @258
    _ZNK9SoundInfo17GetSoundFrequencyEv @259
    _ZNK9__gnu_cxx13new_allocatorISt10_List_nodeISsEE8max_sizeEv @260
    _ZNK9__gnu_cxx13new_allocatorISt13_Rb_tree_nodeISt4pairIKSsP10sound_baseEEE8max_sizeEv @261
    _ZNK9__gnu_cxx13new_allocatorISt13_Rb_tree_nodeISt4pairIKSsP9draw_baseEEE8max_sizeEv @262
    _ZNK9__gnu_cxx13new_allocatorISt13_Rb_tree_nodeISt4pairIKtSsEEE8max_sizeEv @263
    _ZNK9draw_base10GetTextureEv @264
    _ZNK9draw_base14GetAnimCounterEv @265
    _ZNK9draw_base18GetWidthOfMainRectEv @266
    _ZNK9draw_base19GetHeightOfMainRectEv @267
    _ZNK9draw_base8isNoLoopEv @268
    _ZNKSt10_Select1stISt4pairIKSsP10sound_baseEEclERKS4_ @269
    _ZNKSt10_Select1stISt4pairIKSsP10sound_baseEEclERS4_ @270
    _ZNKSt10_Select1stISt4pairIKSsP10sound_baseEEclIS0_ISsS3_EEERNT_10first_typeERS8_ @271
    _ZNKSt10_Select1stISt4pairIKSsP9draw_baseEEclERKS4_ @272
    _ZNKSt10_Select1stISt4pairIKSsP9draw_baseEEclERS4_ @273
    _ZNKSt10_Select1stISt4pairIKSsP9draw_baseEEclIS0_ISsS3_EEERNT_10first_typeERS8_ @274
    _ZNKSt10_Select1stISt4pairIKtSsEEclERKS2_ @275
    _ZNKSt14_List_iteratorISsEdeEv @276
    _ZNKSt14_List_iteratorISsEneERKS0_ @277
    _ZNKSt16initializer_listISt4pairIKtSsEE3endEv @278
    _ZNKSt16initializer_listISt4pairIKtSsEE4sizeEv @279
    _ZNKSt16initializer_listISt4pairIKtSsEE5beginEv @280
    _ZNKSt17_Rb_tree_iteratorISt4pairIKSsP10sound_baseEEdeEv @281
    _ZNKSt17_Rb_tree_iteratorISt4pairIKSsP10sound_baseEEeqERKS5_ @282
    _ZNKSt17_Rb_tree_iteratorISt4pairIKSsP9draw_baseEEdeEv @283
    _ZNKSt17_Rb_tree_iteratorISt4pairIKSsP9draw_baseEEeqERKS5_ @284
    _ZNKSt17_Rb_tree_iteratorISt4pairIKtSsEEeqERKS3_ @285
    _ZNKSt19normal_distributionIdE10param_type4meanEv @286
    _ZNKSt19normal_distributionIdE10param_type6stddevEv @287
    _ZNKSt19normal_distributionIdE5paramEv @288
    _ZNKSt21binomial_distributionIjE10param_type1pEv @289
    _ZNKSt21binomial_distributionIjE10param_type1tEv @290
    _ZNKSt21binomial_distributionIjE5paramEv @291
    _ZNKSt23_Rb_tree_const_iteratorISt4pairIKSsP10sound_baseEE13_M_const_castEv @292
    _ZNKSt23_Rb_tree_const_iteratorISt4pairIKSsP9draw_baseEE13_M_const_castEv @293
    _ZNKSt23_Rb_tree_const_iteratorISt4pairIKtSsEE13_M_const_castEv @294
    _ZNKSt24uniform_int_distributionIjE10param_type1aEv @295
    _ZNKSt24uniform_int_distributionIjE10param_type1bEv @296
    _ZNKSt24uniform_int_distributionIjE5paramEv @297
    _ZNKSt3mapISsP10sound_baseSt4lessISsESaISt4pairIKSsS1_EEE8key_compEv @298
    _ZNKSt3mapISsP9draw_baseSt4lessISsESaISt4pairIKSsS1_EEE8key_compEv @299
    _ZNKSt4lessISsEclERKSsS2_ @300
    _ZNKSt4lessItEclERKtS2_ @301
    _ZNKSt8_Rb_treeISsSt4pairIKSsP10sound_baseESt10_Select1stIS4_ESt4lessISsESaIS4_EE4sizeEv @302
    _ZNKSt8_Rb_treeISsSt4pairIKSsP10sound_baseESt10_Select1stIS4_ESt4lessISsESaIS4_EE8key_compEv @303
    _ZNKSt8_Rb_treeISsSt4pairIKSsP9draw_baseESt10_Select1stIS4_ESt4lessISsESaIS4_EE4sizeEv @304
    _ZNKSt8_Rb_treeISsSt4pairIKSsP9draw_baseESt10_Select1stIS4_ESt4lessISsESaIS4_EE8key_compEv @305
    _ZNKSt8_Rb_treeItSt4pairIKtSsESt10_Select1stIS2_ESt4lessItESaIS2_EE4sizeEv @306
    _ZNSaISt10_List_nodeISsEEC2Ev @307
    _ZNSaISt10_List_nodeISsEED2Ev @308
    _ZNSaISt13_Rb_tree_nodeISt4pairIKSsP10sound_baseEEEC2Ev @309
    _ZNSaISt13_Rb_tree_nodeISt4pairIKSsP10sound_baseEEED2Ev @310
    _ZNSaISt13_Rb_tree_nodeISt4pairIKSsP9draw_baseEEEC2Ev @311
    _ZNSaISt13_Rb_tree_nodeISt4pairIKSsP9draw_baseEEED2Ev @312
    _ZNSaISt13_Rb_tree_nodeISt4pairIKtSsEEEC1IS2_EERKSaIT_E @313
    _ZNSaISt13_Rb_tree_nodeISt4pairIKtSsEEEC2ERKS4_ @314
    _ZNSaISt13_Rb_tree_nodeISt4pairIKtSsEEED1Ev @315
    _ZNSaISt13_Rb_tree_nodeISt4pairIKtSsEEED2Ev @316
    _ZNSaISt4pairIKtSsEEC1ERKS2_ @317
    _ZNSaISt4pairIKtSsEEC1Ev @318
    _ZNSaISt4pairIKtSsEED1Ev @319
    _ZNSt10_List_baseISsSaISsEE10_List_implC1Ev @320
    _ZNSt10_List_baseISsSaISsEE10_List_implD1Ev @321
    _ZNSt10_List_baseISsSaISsEE11_M_get_nodeEv @322
    _ZNSt10_List_baseISsSaISsEE11_M_put_nodeEPSt10_List_nodeISsE @323
    _ZNSt10_List_baseISsSaISsEE21_M_get_Node_allocatorEv @324
    _ZNSt10_List_baseISsSaISsEE7_M_initEv @325
    _ZNSt10_List_baseISsSaISsEE8_M_clearEv @326
    _ZNSt10_List_baseISsSaISsEEC2Ev @327
    _ZNSt10_List_baseISsSaISsEED2Ev @328
    _ZNSt10_List_nodeISsEC1IIRKSsEEEDpOT_ @329
    _ZNSt10_List_nodeISsED1Ev @330
    _ZNSt11char_traitsIcE6lengthEPKc @331
    _ZNSt11char_traitsIcE7compareEPKcS2_j @332
    _ZNSt13_Rb_tree_nodeISt4pairIKSsP10sound_baseEEC1IIS0_ISsS3_EEEEDpOT_ @333
    _ZNSt13_Rb_tree_nodeISt4pairIKSsP10sound_baseEEC1IIS4_EEEDpOT_ @334
    _ZNSt13_Rb_tree_nodeISt4pairIKSsP10sound_baseEED1Ev @335
    _ZNSt13_Rb_tree_nodeISt4pairIKSsP9draw_baseEEC1IIS0_ISsS3_EEEEDpOT_ @336
    _ZNSt13_Rb_tree_nodeISt4pairIKSsP9draw_baseEEC1IIS4_EEEDpOT_ @337
    _ZNSt13_Rb_tree_nodeISt4pairIKSsP9draw_baseEED1Ev @338
    _ZNSt13_Rb_tree_nodeISt4pairIKtSsEEC1IIRKS2_EEEDpOT_ @339
    _ZNSt13_Rb_tree_nodeISt4pairIKtSsEED1Ev @340
    _ZNSt14_List_iteratorISsEC1EPNSt8__detail15_List_node_baseE @341
    _ZNSt14_List_iteratorISsEppEi @342
    _ZNSt14_List_iteratorISsEppEv @343
    _ZNSt14numeric_limitsIdE7epsilonEv @344
    _ZNSt14numeric_limitsIjE3maxEv @345
    _ZNSt17_Rb_tree_iteratorISt4pairIKSsP10sound_baseEEC1EPSt13_Rb_tree_nodeIS4_E @346
    _ZNSt17_Rb_tree_iteratorISt4pairIKSsP10sound_baseEEmmEv @347
    _ZNSt17_Rb_tree_iteratorISt4pairIKSsP9draw_baseEEC1EPSt13_Rb_tree_nodeIS4_E @348
    _ZNSt17_Rb_tree_iteratorISt4pairIKSsP9draw_baseEEmmEv @349
    _ZNSt17_Rb_tree_iteratorISt4pairIKtSsEEC1EPSt13_Rb_tree_nodeIS2_E @350
    _ZNSt17_Rb_tree_iteratorISt4pairIKtSsEEmmEv @351
    _ZNSt19normal_distributionIdE10param_typeC1Edd @352
    _ZNSt19normal_distributionIdEC1Edd @353
    _ZNSt19normal_distributionIdEclISt23mersenne_twister_engineIjLj32ELj624ELj397ELj31ELj2567483615ELj11ELj4294967295ELj7ELj2636928640ELj15ELj4022730752ELj18ELj1812433253EEEEdRT_ @354
    _ZNSt19normal_distributionIdEclISt23mersenne_twister_engineIjLj32ELj624ELj397ELj31ELj2567483615ELj11ELj4294967295ELj7ELj2636928640ELj15ELj4022730752ELj18ELj1812433253EEEEdRT_RKNS0_10param_typeE @355
    _ZNSt21binomial_distributionIjE10_M_waitingISt23mersenne_twister_engineIjLj32ELj624ELj397ELj31ELj2567483615ELj11ELj4294967295ELj7ELj2636928640ELj15ELj4022730752ELj18ELj1812433253EEEEjRT_j @356
    _ZNSt21binomial_distributionIjE10param_type13_M_initializeEv @357
    _ZNSt21binomial_distributionIjE10param_typeC1Ejd @358
    _ZNSt21binomial_distributionIjEC1Ejd @359
    _ZNSt21binomial_distributionIjEclISt23mersenne_twister_engineIjLj32ELj624ELj397ELj31ELj2567483615ELj11ELj4294967295ELj7ELj2636928640ELj15ELj4022730752ELj18ELj1812433253EEEEjRT_ @360
    _ZNSt21binomial_distributionIjEclISt23mersenne_twister_engineIjLj32ELj624ELj397ELj31ELj2567483615ELj11ELj4294967295ELj7ELj2636928640ELj15ELj4022730752ELj18ELj1812433253EEEEjRT_RKNS0_10param_typeE @361
    _ZNSt23_Rb_tree_const_iteratorISt4pairIKSsP10sound_baseEEC1ERKSt17_Rb_tree_iteratorIS4_E @362
    _ZNSt23_Rb_tree_const_iteratorISt4pairIKSsP10sound_baseEEmmEv @363
    _ZNSt23_Rb_tree_const_iteratorISt4pairIKSsP10sound_baseEEppEv @364
    _ZNSt23_Rb_tree_const_iteratorISt4pairIKSsP9draw_baseEEC1ERKSt17_Rb_tree_iteratorIS4_E @365
    _ZNSt23_Rb_tree_const_iteratorISt4pairIKSsP9draw_baseEEmmEv @366
    _ZNSt23_Rb_tree_const_iteratorISt4pairIKSsP9draw_baseEEppEv @367
    _ZNSt23_Rb_tree_const_iteratorISt4pairIKtSsEEC1ERKSt17_Rb_tree_iteratorIS2_E @368
    _ZNSt23_Rb_tree_const_iteratorISt4pairIKtSsEEmmEv @369
    _ZNSt23_Rb_tree_const_iteratorISt4pairIKtSsEEppEv @370
    _ZNSt23mersenne_twister_engineIjLj32ELj624ELj397ELj31ELj2567483615ELj11ELj4294967295ELj7ELj2636928640ELj15ELj4022730752ELj18ELj1812433253EE3maxEv @371
    _ZNSt23mersenne_twister_engineIjLj32ELj624ELj397ELj31ELj2567483615ELj11ELj4294967295ELj7ELj2636928640ELj15ELj4022730752ELj18ELj1812433253EE3minEv @372
    _ZNSt23mersenne_twister_engineIjLj32ELj624ELj397ELj31ELj2567483615ELj11ELj4294967295ELj7ELj2636928640ELj15ELj4022730752ELj18ELj1812433253EE4seedEj @373
    _ZNSt23mersenne_twister_engineIjLj32ELj624ELj397ELj31ELj2567483615ELj11ELj4294967295ELj7ELj2636928640ELj15ELj4022730752ELj18ELj1812433253EEC1Ej @374
    _ZNSt23mersenne_twister_engineIjLj32ELj624ELj397ELj31ELj2567483615ELj11ELj4294967295ELj7ELj2636928640ELj15ELj4022730752ELj18ELj1812433253EEclEv @375
    _ZNSt24uniform_int_distributionIjE10param_typeC1Ejj @376
    _ZNSt24uniform_int_distributionIjEC1Ejj @377
    _ZNSt24uniform_int_distributionIjEclISt23mersenne_twister_engineIjLj32ELj624ELj397ELj31ELj2567483615ELj11ELj4294967295ELj7ELj2636928640ELj15ELj4022730752ELj18ELj1812433253EEEEjRT_ @378
    _ZNSt24uniform_int_distributionIjEclISt23mersenne_twister_engineIjLj32ELj624ELj397ELj31ELj2567483615ELj11ELj4294967295ELj7ELj2636928640ELj15ELj4022730752ELj18ELj1812433253EEEEjRT_RKNS0_10param_typeE @379
    _ZNSt3mapISsP10sound_baseSt4lessISsESaISt4pairIKSsS1_EEE11lower_boundERS5_ @380
    _ZNSt3mapISsP10sound_baseSt4lessISsESaISt4pairIKSsS1_EEE3endEv @381
    _ZNSt3mapISsP10sound_baseSt4lessISsESaISt4pairIKSsS1_EEE6insertIS4_ISsS1_EvEESt17_Rb_tree_iteratorIS6_ESt23_Rb_tree_const_iteratorIS6_EOT_ @382
    _ZNSt3mapISsP10sound_baseSt4lessISsESaISt4pairIKSsS1_EEE6insertIS6_vEESt17_Rb_tree_iteratorIS6_ESt23_Rb_tree_const_iteratorIS6_EOT_ @383
    _ZNSt3mapISsP10sound_baseSt4lessISsESaISt4pairIKSsS1_EEEC1Ev @384
    _ZNSt3mapISsP10sound_baseSt4lessISsESaISt4pairIKSsS1_EEED1Ev @385
    _ZNSt3mapISsP10sound_baseSt4lessISsESaISt4pairIKSsS1_EEEixEOSs @386
    _ZNSt3mapISsP10sound_baseSt4lessISsESaISt4pairIKSsS1_EEEixERS5_ @387
    _ZNSt3mapISsP9draw_baseSt4lessISsESaISt4pairIKSsS1_EEE11lower_boundERS5_ @388
    _ZNSt3mapISsP9draw_baseSt4lessISsESaISt4pairIKSsS1_EEE3endEv @389
    _ZNSt3mapISsP9draw_baseSt4lessISsESaISt4pairIKSsS1_EEE6insertIS4_ISsS1_EvEESt17_Rb_tree_iteratorIS6_ESt23_Rb_tree_const_iteratorIS6_EOT_ @390
    _ZNSt3mapISsP9draw_baseSt4lessISsESaISt4pairIKSsS1_EEE6insertIS6_vEESt17_Rb_tree_iteratorIS6_ESt23_Rb_tree_const_iteratorIS6_EOT_ @391
    _ZNSt3mapISsP9draw_baseSt4lessISsESaISt4pairIKSsS1_EEEC1Ev @392
    _ZNSt3mapISsP9draw_baseSt4lessISsESaISt4pairIKSsS1_EEED1Ev @393
    _ZNSt3mapISsP9draw_baseSt4lessISsESaISt4pairIKSsS1_EEEixEOSs @394
    _ZNSt3mapISsP9draw_baseSt4lessISsESaISt4pairIKSsS1_EEEixERS5_ @395
    _ZNSt3mapItSsSt4lessItESaISt4pairIKtSsEEEC1ESt16initializer_listIS4_ERKS1_RKS5_ @396
    _ZNSt3mapItSsSt4lessItESaISt4pairIKtSsEEED1Ev @397
    _ZNSt4listISsSaISsEE14_M_create_nodeIIRKSsEEEPSt10_List_nodeISsEDpOT_ @398
    _ZNSt4listISsSaISsEE3endEv @399
    _ZNSt4listISsSaISsEE5beginEv @400
    _ZNSt4listISsSaISsEE6removeERKSs @401
    _ZNSt4listISsSaISsEE8_M_eraseESt14_List_iteratorISsE @402
    _ZNSt4listISsSaISsEE9_M_insertIIRKSsEEEvSt14_List_iteratorISsEDpOT_ @403
    _ZNSt4listISsSaISsEE9push_backERKSs @404
    _ZNSt4listISsSaISsEEC1Ev @405
    _ZNSt4listISsSaISsEED1Ev @406
    _ZNSt4pairIKSsP10sound_baseEC1EOS3_ @407
    _ZNSt4pairIKSsP10sound_baseEC1IS2_vEERS0_OT_ @408
    _ZNSt4pairIKSsP10sound_baseEC1ISsS2_vEEOS_IT_T0_E @409
    _ZNSt4pairIKSsP10sound_baseED1Ev @410
    _ZNSt4pairIKSsP9draw_baseEC1EOS3_ @411
    _ZNSt4pairIKSsP9draw_baseEC1IS2_vEERS0_OT_ @412
    _ZNSt4pairIKSsP9draw_baseEC1ISsS2_vEEOS_IT_T0_E @413
    _ZNSt4pairIKSsP9draw_baseED1Ev @414
    _ZNSt4pairIKtSsEC1ERKS1_ @415
    _ZNSt4pairIKtSsEC1I14StatementTypesRA10_KcvEEOT_OT0_ @416
    _ZNSt4pairIKtSsEC1I14StatementTypesRA11_KcvEEOT_OT0_ @417
    _ZNSt4pairIKtSsEC1I14StatementTypesRA12_KcvEEOT_OT0_ @418
    _ZNSt4pairIKtSsEC1I14StatementTypesRA13_KcvEEOT_OT0_ @419
    _ZNSt4pairIKtSsEC1I14StatementTypesRA15_KcvEEOT_OT0_ @420
    _ZNSt4pairIKtSsEC1I14StatementTypesRA17_KcvEEOT_OT0_ @421
    _ZNSt4pairIKtSsEC1I14StatementTypesRA18_KcvEEOT_OT0_ @422
    _ZNSt4pairIKtSsEC1I14StatementTypesRA5_KcvEEOT_OT0_ @423
    _ZNSt4pairIKtSsEC1I14StatementTypesRA6_KcvEEOT_OT0_ @424
    _ZNSt4pairIKtSsEC1I14StatementTypesRA7_KcvEEOT_OT0_ @425
    _ZNSt4pairIKtSsEC1I14StatementTypesRA8_KcvEEOT_OT0_ @426
    _ZNSt4pairIKtSsEC1I14StatementTypesRA9_KcvEEOT_OT0_ @427
    _ZNSt4pairIKtSsED1Ev @428
    _ZNSt4pairISsP10sound_baseEC1ISsS1_vEEOT_OT0_ @429
    _ZNSt4pairISsP10sound_baseED1Ev @430
    _ZNSt4pairISsP9draw_baseEC1ISsS1_vEEOT_OT0_ @431
    _ZNSt4pairISsP9draw_baseED1Ev @432
    _ZNSt4pairISt17_Rb_tree_iteratorIS_IKSsP10sound_baseEEbEC1IRS5_bvEEOT_OT0_ @433
    _ZNSt4pairISt17_Rb_tree_iteratorIS_IKSsP10sound_baseEEbEC1IS5_bvEEOT_OT0_ @434
    _ZNSt4pairISt17_Rb_tree_iteratorIS_IKSsP9draw_baseEEbEC1IRS5_bvEEOT_OT0_ @435
    _ZNSt4pairISt17_Rb_tree_iteratorIS_IKSsP9draw_baseEEbEC1IS5_bvEEOT_OT0_ @436
    _ZNSt4pairISt17_Rb_tree_iteratorIS_IKtSsEEbEC1IRS3_bvEEOT_OT0_ @437
    _ZNSt4pairISt17_Rb_tree_iteratorIS_IKtSsEEbEC1IS3_bvEEOT_OT0_ @438
    _ZNSt8_Rb_treeISsSt4pairIKSsP10sound_baseESt10_Select1stIS4_ESt4lessISsESaIS4_EE10_M_insert_IS0_ISsS3_EEESt17_Rb_tree_iteratorIS4_EPKSt18_Rb_tree_node_baseSH_OT_ @439
    _ZNSt8_Rb_treeISsSt4pairIKSsP10sound_baseESt10_Select1stIS4_ESt4lessISsESaIS4_EE10_M_insert_IS4_EESt17_Rb_tree_iteratorIS4_EPKSt18_Rb_tree_node_baseSG_OT_ @440
    _ZNSt8_Rb_treeISsSt4pairIKSsP10sound_baseESt10_Select1stIS4_ESt4lessISsESaIS4_EE11_M_get_nodeEv @441
    _ZNSt8_Rb_treeISsSt4pairIKSsP10sound_baseESt10_Select1stIS4_ESt4lessISsESaIS4_EE11_M_leftmostEv @442
    _ZNSt8_Rb_treeISsSt4pairIKSsP10sound_baseESt10_Select1stIS4_ESt4lessISsESaIS4_EE11_M_put_nodeEPSt13_Rb_tree_nodeIS4_E @443
    _ZNSt8_Rb_treeISsSt4pairIKSsP10sound_baseESt10_Select1stIS4_ESt4lessISsESaIS4_EE11lower_boundERS1_ @444
    _ZNSt8_Rb_treeISsSt4pairIKSsP10sound_baseESt10_Select1stIS4_ESt4lessISsESaIS4_EE12_M_rightmostEv @445
    _ZNSt8_Rb_treeISsSt4pairIKSsP10sound_baseESt10_Select1stIS4_ESt4lessISsESaIS4_EE13_Rb_tree_implIS8_Lb1EE13_M_initializeEv @446
    _ZNSt8_Rb_treeISsSt4pairIKSsP10sound_baseESt10_Select1stIS4_ESt4lessISsESaIS4_EE13_Rb_tree_implIS8_Lb1EEC1Ev @447
    _ZNSt8_Rb_treeISsSt4pairIKSsP10sound_baseESt10_Select1stIS4_ESt4lessISsESaIS4_EE13_Rb_tree_implIS8_Lb1EED1Ev @448
    _ZNSt8_Rb_treeISsSt4pairIKSsP10sound_baseESt10_Select1stIS4_ESt4lessISsESaIS4_EE14_M_create_nodeIIS0_ISsS3_EEEEPSt13_Rb_tree_nodeIS4_EDpOT_ @449
    _ZNSt8_Rb_treeISsSt4pairIKSsP10sound_baseESt10_Select1stIS4_ESt4lessISsESaIS4_EE14_M_create_nodeIIS4_EEEPSt13_Rb_tree_nodeIS4_EDpOT_ @450
    _ZNSt8_Rb_treeISsSt4pairIKSsP10sound_baseESt10_Select1stIS4_ESt4lessISsESaIS4_EE14_M_lower_boundEPSt13_Rb_tree_nodeIS4_ESD_RS1_ @451
    _ZNSt8_Rb_treeISsSt4pairIKSsP10sound_baseESt10_Select1stIS4_ESt4lessISsESaIS4_EE15_M_destroy_nodeEPSt13_Rb_tree_nodeIS4_E @452
    _ZNSt8_Rb_treeISsSt4pairIKSsP10sound_baseESt10_Select1stIS4_ESt4lessISsESaIS4_EE16_M_insert_uniqueIS0_ISsS3_EEES0_ISt17_Rb_tree_iteratorIS4_EbEOT_ @453
    _ZNSt8_Rb_treeISsSt4pairIKSsP10sound_baseESt10_Select1stIS4_ESt4lessISsESaIS4_EE16_M_insert_uniqueIS4_EES0_ISt17_Rb_tree_iteratorIS4_EbEOT_ @454
    _ZNSt8_Rb_treeISsSt4pairIKSsP10sound_baseESt10_Select1stIS4_ESt4lessISsESaIS4_EE17_M_insert_unique_IS0_ISsS3_EEESt17_Rb_tree_iteratorIS4_ESt23_Rb_tree_const_iteratorIS4_EOT_ @455
    _ZNSt8_Rb_treeISsSt4pairIKSsP10sound_baseESt10_Select1stIS4_ESt4lessISsESaIS4_EE17_M_insert_unique_IS4_EESt17_Rb_tree_iteratorIS4_ESt23_Rb_tree_const_iteratorIS4_EOT_ @456
    _ZNSt8_Rb_treeISsSt4pairIKSsP10sound_baseESt10_Select1stIS4_ESt4lessISsESaIS4_EE21_M_get_Node_allocatorEv @457
    _ZNSt8_Rb_treeISsSt4pairIKSsP10sound_baseESt10_Select1stIS4_ESt4lessISsESaIS4_EE3endEv @458
    _ZNSt8_Rb_treeISsSt4pairIKSsP10sound_baseESt10_Select1stIS4_ESt4lessISsESaIS4_EE5beginEv @459
    _ZNSt8_Rb_treeISsSt4pairIKSsP10sound_baseESt10_Select1stIS4_ESt4lessISsESaIS4_EE6_M_endEv @460
    _ZNSt8_Rb_treeISsSt4pairIKSsP10sound_baseESt10_Select1stIS4_ESt4lessISsESaIS4_EE6_S_keyEPKSt13_Rb_tree_nodeIS4_E @461
    _ZNSt8_Rb_treeISsSt4pairIKSsP10sound_baseESt10_Select1stIS4_ESt4lessISsESaIS4_EE6_S_keyEPKSt18_Rb_tree_node_base @462
    _ZNSt8_Rb_treeISsSt4pairIKSsP10sound_baseESt10_Select1stIS4_ESt4lessISsESaIS4_EE7_S_leftEPSt18_Rb_tree_node_base @463
    _ZNSt8_Rb_treeISsSt4pairIKSsP10sound_baseESt10_Select1stIS4_ESt4lessISsESaIS4_EE8_M_beginEv @464
    _ZNSt8_Rb_treeISsSt4pairIKSsP10sound_baseESt10_Select1stIS4_ESt4lessISsESaIS4_EE8_M_eraseEPSt13_Rb_tree_nodeIS4_E @465
    _ZNSt8_Rb_treeISsSt4pairIKSsP10sound_baseESt10_Select1stIS4_ESt4lessISsESaIS4_EE8_S_rightEPKSt18_Rb_tree_node_base @466
    _ZNSt8_Rb_treeISsSt4pairIKSsP10sound_baseESt10_Select1stIS4_ESt4lessISsESaIS4_EE8_S_rightEPSt18_Rb_tree_node_base @467
    _ZNSt8_Rb_treeISsSt4pairIKSsP10sound_baseESt10_Select1stIS4_ESt4lessISsESaIS4_EE8_S_valueEPKSt13_Rb_tree_nodeIS4_E @468
    _ZNSt8_Rb_treeISsSt4pairIKSsP10sound_baseESt10_Select1stIS4_ESt4lessISsESaIS4_EE8_S_valueEPKSt18_Rb_tree_node_base @469
    _ZNSt8_Rb_treeISsSt4pairIKSsP10sound_baseESt10_Select1stIS4_ESt4lessISsESaIS4_EEC1Ev @470
    _ZNSt8_Rb_treeISsSt4pairIKSsP10sound_baseESt10_Select1stIS4_ESt4lessISsESaIS4_EED1Ev @471
    _ZNSt8_Rb_treeISsSt4pairIKSsP9draw_baseESt10_Select1stIS4_ESt4lessISsESaIS4_EE10_M_insert_IS0_ISsS3_EEESt17_Rb_tree_iteratorIS4_EPKSt18_Rb_tree_node_baseSH_OT_ @472
    _ZNSt8_Rb_treeISsSt4pairIKSsP9draw_baseESt10_Select1stIS4_ESt4lessISsESaIS4_EE10_M_insert_IS4_EESt17_Rb_tree_iteratorIS4_EPKSt18_Rb_tree_node_baseSG_OT_ @473
    _ZNSt8_Rb_treeISsSt4pairIKSsP9draw_baseESt10_Select1stIS4_ESt4lessISsESaIS4_EE11_M_get_nodeEv @474
    _ZNSt8_Rb_treeISsSt4pairIKSsP9draw_baseESt10_Select1stIS4_ESt4lessISsESaIS4_EE11_M_leftmostEv @475
    _ZNSt8_Rb_treeISsSt4pairIKSsP9draw_baseESt10_Select1stIS4_ESt4lessISsESaIS4_EE11_M_put_nodeEPSt13_Rb_tree_nodeIS4_E @476
    _ZNSt8_Rb_treeISsSt4pairIKSsP9draw_baseESt10_Select1stIS4_ESt4lessISsESaIS4_EE11lower_boundERS1_ @477
    _ZNSt8_Rb_treeISsSt4pairIKSsP9draw_baseESt10_Select1stIS4_ESt4lessISsESaIS4_EE12_M_rightmostEv @478
    _ZNSt8_Rb_treeISsSt4pairIKSsP9draw_baseESt10_Select1stIS4_ESt4lessISsESaIS4_EE13_Rb_tree_implIS8_Lb1EE13_M_initializeEv @479
    _ZNSt8_Rb_treeISsSt4pairIKSsP9draw_baseESt10_Select1stIS4_ESt4lessISsESaIS4_EE13_Rb_tree_implIS8_Lb1EEC1Ev @480
    _ZNSt8_Rb_treeISsSt4pairIKSsP9draw_baseESt10_Select1stIS4_ESt4lessISsESaIS4_EE13_Rb_tree_implIS8_Lb1EED1Ev @481
    _ZNSt8_Rb_treeISsSt4pairIKSsP9draw_baseESt10_Select1stIS4_ESt4lessISsESaIS4_EE14_M_create_nodeIIS0_ISsS3_EEEEPSt13_Rb_tree_nodeIS4_EDpOT_ @482
    _ZNSt8_Rb_treeISsSt4pairIKSsP9draw_baseESt10_Select1stIS4_ESt4lessISsESaIS4_EE14_M_create_nodeIIS4_EEEPSt13_Rb_tree_nodeIS4_EDpOT_ @483
    _ZNSt8_Rb_treeISsSt4pairIKSsP9draw_baseESt10_Select1stIS4_ESt4lessISsESaIS4_EE14_M_lower_boundEPSt13_Rb_tree_nodeIS4_ESD_RS1_ @484
    _ZNSt8_Rb_treeISsSt4pairIKSsP9draw_baseESt10_Select1stIS4_ESt4lessISsESaIS4_EE15_M_destroy_nodeEPSt13_Rb_tree_nodeIS4_E @485
    _ZNSt8_Rb_treeISsSt4pairIKSsP9draw_baseESt10_Select1stIS4_ESt4lessISsESaIS4_EE16_M_insert_uniqueIS0_ISsS3_EEES0_ISt17_Rb_tree_iteratorIS4_EbEOT_ @486
    _ZNSt8_Rb_treeISsSt4pairIKSsP9draw_baseESt10_Select1stIS4_ESt4lessISsESaIS4_EE16_M_insert_uniqueIS4_EES0_ISt17_Rb_tree_iteratorIS4_EbEOT_ @487
    _ZNSt8_Rb_treeISsSt4pairIKSsP9draw_baseESt10_Select1stIS4_ESt4lessISsESaIS4_EE17_M_insert_unique_IS0_ISsS3_EEESt17_Rb_tree_iteratorIS4_ESt23_Rb_tree_const_iteratorIS4_EOT_ @488
    _ZNSt8_Rb_treeISsSt4pairIKSsP9draw_baseESt10_Select1stIS4_ESt4lessISsESaIS4_EE17_M_insert_unique_IS4_EESt17_Rb_tree_iteratorIS4_ESt23_Rb_tree_const_iteratorIS4_EOT_ @489
    _ZNSt8_Rb_treeISsSt4pairIKSsP9draw_baseESt10_Select1stIS4_ESt4lessISsESaIS4_EE21_M_get_Node_allocatorEv @490
    _ZNSt8_Rb_treeISsSt4pairIKSsP9draw_baseESt10_Select1stIS4_ESt4lessISsESaIS4_EE3endEv @491
    _ZNSt8_Rb_treeISsSt4pairIKSsP9draw_baseESt10_Select1stIS4_ESt4lessISsESaIS4_EE5beginEv @492
    _ZNSt8_Rb_treeISsSt4pairIKSsP9draw_baseESt10_Select1stIS4_ESt4lessISsESaIS4_EE6_M_endEv @493
    _ZNSt8_Rb_treeISsSt4pairIKSsP9draw_baseESt10_Select1stIS4_ESt4lessISsESaIS4_EE6_S_keyEPKSt13_Rb_tree_nodeIS4_E @494
    _ZNSt8_Rb_treeISsSt4pairIKSsP9draw_baseESt10_Select1stIS4_ESt4lessISsESaIS4_EE6_S_keyEPKSt18_Rb_tree_node_base @495
    _ZNSt8_Rb_treeISsSt4pairIKSsP9draw_baseESt10_Select1stIS4_ESt4lessISsESaIS4_EE7_S_leftEPSt18_Rb_tree_node_base @496
    _ZNSt8_Rb_treeISsSt4pairIKSsP9draw_baseESt10_Select1stIS4_ESt4lessISsESaIS4_EE8_M_beginEv @497
    _ZNSt8_Rb_treeISsSt4pairIKSsP9draw_baseESt10_Select1stIS4_ESt4lessISsESaIS4_EE8_M_eraseEPSt13_Rb_tree_nodeIS4_E @498
    _ZNSt8_Rb_treeISsSt4pairIKSsP9draw_baseESt10_Select1stIS4_ESt4lessISsESaIS4_EE8_S_rightEPKSt18_Rb_tree_node_base @499
    _ZNSt8_Rb_treeISsSt4pairIKSsP9draw_baseESt10_Select1stIS4_ESt4lessISsESaIS4_EE8_S_rightEPSt18_Rb_tree_node_base @500
    _ZNSt8_Rb_treeISsSt4pairIKSsP9draw_baseESt10_Select1stIS4_ESt4lessISsESaIS4_EE8_S_valueEPKSt13_Rb_tree_nodeIS4_E @501
    _ZNSt8_Rb_treeISsSt4pairIKSsP9draw_baseESt10_Select1stIS4_ESt4lessISsESaIS4_EE8_S_valueEPKSt18_Rb_tree_node_base @502
    _ZNSt8_Rb_treeISsSt4pairIKSsP9draw_baseESt10_Select1stIS4_ESt4lessISsESaIS4_EEC1Ev @503
    _ZNSt8_Rb_treeISsSt4pairIKSsP9draw_baseESt10_Select1stIS4_ESt4lessISsESaIS4_EED1Ev @504
    _ZNSt8_Rb_treeItSt4pairIKtSsESt10_Select1stIS2_ESt4lessItESaIS2_EE10_M_insert_IRKS2_EESt17_Rb_tree_iteratorIS2_EPKSt18_Rb_tree_node_baseSG_OT_ @505
    _ZNSt8_Rb_treeItSt4pairIKtSsESt10_Select1stIS2_ESt4lessItESaIS2_EE11_M_get_nodeEv @506
    _ZNSt8_Rb_treeItSt4pairIKtSsESt10_Select1stIS2_ESt4lessItESaIS2_EE11_M_leftmostEv @507
    _ZNSt8_Rb_treeItSt4pairIKtSsESt10_Select1stIS2_ESt4lessItESaIS2_EE11_M_put_nodeEPSt13_Rb_tree_nodeIS2_E @508
    _ZNSt8_Rb_treeItSt4pairIKtSsESt10_Select1stIS2_ESt4lessItESaIS2_EE12_M_rightmostEv @509
    _ZNSt8_Rb_treeItSt4pairIKtSsESt10_Select1stIS2_ESt4lessItESaIS2_EE13_Rb_tree_implIS6_Lb1EE13_M_initializeEv @510
    _ZNSt8_Rb_treeItSt4pairIKtSsESt10_Select1stIS2_ESt4lessItESaIS2_EE13_Rb_tree_implIS6_Lb1EEC1ERKS6_OSaISt13_Rb_tree_nodeIS2_EE @511
    _ZNSt8_Rb_treeItSt4pairIKtSsESt10_Select1stIS2_ESt4lessItESaIS2_EE13_Rb_tree_implIS6_Lb1EED1Ev @512
    _ZNSt8_Rb_treeItSt4pairIKtSsESt10_Select1stIS2_ESt4lessItESaIS2_EE14_M_create_nodeIIRKS2_EEEPSt13_Rb_tree_nodeIS2_EDpOT_ @513
    _ZNSt8_Rb_treeItSt4pairIKtSsESt10_Select1stIS2_ESt4lessItESaIS2_EE15_M_destroy_nodeEPSt13_Rb_tree_nodeIS2_E @514
    _ZNSt8_Rb_treeItSt4pairIKtSsESt10_Select1stIS2_ESt4lessItESaIS2_EE16_M_insert_uniqueIPKS2_EEvT_SC_ @515
    _ZNSt8_Rb_treeItSt4pairIKtSsESt10_Select1stIS2_ESt4lessItESaIS2_EE16_M_insert_uniqueIRKS2_EES0_ISt17_Rb_tree_iteratorIS2_EbEOT_ @516
    _ZNSt8_Rb_treeItSt4pairIKtSsESt10_Select1stIS2_ESt4lessItESaIS2_EE17_M_insert_unique_IRKS2_EESt17_Rb_tree_iteratorIS2_ESt23_Rb_tree_const_iteratorIS2_EOT_ @517
    _ZNSt8_Rb_treeItSt4pairIKtSsESt10_Select1stIS2_ESt4lessItESaIS2_EE21_M_get_Node_allocatorEv @518
    _ZNSt8_Rb_treeItSt4pairIKtSsESt10_Select1stIS2_ESt4lessItESaIS2_EE3endEv @519
    _ZNSt8_Rb_treeItSt4pairIKtSsESt10_Select1stIS2_ESt4lessItESaIS2_EE5beginEv @520
    _ZNSt8_Rb_treeItSt4pairIKtSsESt10_Select1stIS2_ESt4lessItESaIS2_EE6_M_endEv @521
    _ZNSt8_Rb_treeItSt4pairIKtSsESt10_Select1stIS2_ESt4lessItESaIS2_EE6_S_keyEPKSt13_Rb_tree_nodeIS2_E @522
    _ZNSt8_Rb_treeItSt4pairIKtSsESt10_Select1stIS2_ESt4lessItESaIS2_EE6_S_keyEPKSt18_Rb_tree_node_base @523
    _ZNSt8_Rb_treeItSt4pairIKtSsESt10_Select1stIS2_ESt4lessItESaIS2_EE7_S_leftEPSt18_Rb_tree_node_base @524
    _ZNSt8_Rb_treeItSt4pairIKtSsESt10_Select1stIS2_ESt4lessItESaIS2_EE8_M_beginEv @525
    _ZNSt8_Rb_treeItSt4pairIKtSsESt10_Select1stIS2_ESt4lessItESaIS2_EE8_M_eraseEPSt13_Rb_tree_nodeIS2_E @526
    _ZNSt8_Rb_treeItSt4pairIKtSsESt10_Select1stIS2_ESt4lessItESaIS2_EE8_S_rightEPKSt18_Rb_tree_node_base @527
    _ZNSt8_Rb_treeItSt4pairIKtSsESt10_Select1stIS2_ESt4lessItESaIS2_EE8_S_rightEPSt18_Rb_tree_node_base @528
    _ZNSt8_Rb_treeItSt4pairIKtSsESt10_Select1stIS2_ESt4lessItESaIS2_EE8_S_valueEPKSt13_Rb_tree_nodeIS2_E @529
    _ZNSt8_Rb_treeItSt4pairIKtSsESt10_Select1stIS2_ESt4lessItESaIS2_EE8_S_valueEPKSt18_Rb_tree_node_base @530
    _ZNSt8_Rb_treeItSt4pairIKtSsESt10_Select1stIS2_ESt4lessItESaIS2_EEC1ERKS6_RKS7_ @531
    _ZNSt8_Rb_treeItSt4pairIKtSsESt10_Select1stIS2_ESt4lessItESaIS2_EED1Ev @532
    _ZNSt8__detail4_ModIjLj0ELj1ELj0ELb1EE6__calcEj @533
    _ZNSt8__detail4_ModIjLj624ELj1ELj0ELb0EE6__calcEj @534
    _ZNSt8__detail5__modIjLj0ELj1ELj0EEET_S1_ @535
    _ZNSt8__detail5__modIjLj624ELj1ELj0EEET_S1_ @536
    _ZNSt8__detail8_AdaptorISt23mersenne_twister_engineIjLj32ELj624ELj397ELj31ELj2567483615ELj11ELj4294967295ELj7ELj2636928640ELj15ELj4022730752ELj18ELj1812433253EEdEC1ERS2_ @537
    _ZNSt8__detail8_AdaptorISt23mersenne_twister_engineIjLj32ELj624ELj397ELj31ELj2567483615ELj11ELj4294967295ELj7ELj2636928640ELj15ELj4022730752ELj18ELj1812433253EEdEclEv @538
    _ZSt11__addressofIKSsEPT_RS1_ @539
    _ZSt11__addressofISsEPT_RS0_ @540
    _ZSt18generate_canonicalIdLj53ESt23mersenne_twister_engineIjLj32ELj624ELj397ELj31ELj2567483615ELj11ELj4294967295ELj7ELj2636928640ELj15ELj4022730752ELj18ELj1812433253EEET_RT1_ @541
    _ZSt3absd @542
    _ZSt3loge @543
    _ZSt3maxIdERKT_S2_S2_ @544
    _ZSt3maxIjERKT_S2_S2_ @545
    _ZSt3minIjERKT_S2_S2_ @546
    _ZSt4moveIRSaISt13_Rb_tree_nodeISt4pairIKtSsEEEEONSt16remove_referenceIT_E4typeEOS8_ @547
    _ZSt4moveIRSsEONSt16remove_referenceIT_E4typeEOS2_ @548
    _ZSt7forwardI14StatementTypesEOT_RNSt16remove_referenceIS1_E4typeE @549
    _ZSt7forwardIKSsEOT_RNSt16remove_referenceIS1_E4typeE @550
    _ZSt7forwardIP10sound_baseEOT_RNSt16remove_referenceIS2_E4typeE @551
    _ZSt7forwardIP9draw_baseEOT_RNSt16remove_referenceIS2_E4typeE @552
    _ZSt7forwardIRA10_KcEOT_RNSt16remove_referenceIS3_E4typeE @553
    _ZSt7forwardIRA11_KcEOT_RNSt16remove_referenceIS3_E4typeE @554
    _ZSt7forwardIRA12_KcEOT_RNSt16remove_referenceIS3_E4typeE @555
    _ZSt7forwardIRA13_KcEOT_RNSt16remove_referenceIS3_E4typeE @556
    _ZSt7forwardIRA15_KcEOT_RNSt16remove_referenceIS3_E4typeE @557
    _ZSt7forwardIRA17_KcEOT_RNSt16remove_referenceIS3_E4typeE @558
    _ZSt7forwardIRA18_KcEOT_RNSt16remove_referenceIS3_E4typeE @559
    _ZSt7forwardIRA5_KcEOT_RNSt16remove_referenceIS3_E4typeE @560
    _ZSt7forwardIRA6_KcEOT_RNSt16remove_referenceIS3_E4typeE @561
    _ZSt7forwardIRA7_KcEOT_RNSt16remove_referenceIS3_E4typeE @562
    _ZSt7forwardIRA8_KcEOT_RNSt16remove_referenceIS3_E4typeE @563
    _ZSt7forwardIRA9_KcEOT_RNSt16remove_referenceIS3_E4typeE @564
    _ZSt7forwardIRKSsEOT_RNSt16remove_referenceIS2_E4typeE @565
    _ZSt7forwardIRKSt4pairIKtSsEEOT_RNSt16remove_referenceIS5_E4typeE @566
    _ZSt7forwardIRSt17_Rb_tree_iteratorISt4pairIKSsP10sound_baseEEEOT_RNSt16remove_referenceIS8_E4typeE @567
    _ZSt7forwardIRSt17_Rb_tree_iteratorISt4pairIKSsP9draw_baseEEEOT_RNSt16remove_referenceIS8_E4typeE @568
    _ZSt7forwardIRSt17_Rb_tree_iteratorISt4pairIKtSsEEEOT_RNSt16remove_referenceIS6_E4typeE @569
    _ZSt7forwardISsEOT_RNSt16remove_referenceIS0_E4typeE @570
    _ZSt7forwardISt17_Rb_tree_iteratorISt4pairIKSsP10sound_baseEEEOT_RNSt16remove_referenceIS7_E4typeE @571
    _ZSt7forwardISt17_Rb_tree_iteratorISt4pairIKSsP9draw_baseEEEOT_RNSt16remove_referenceIS7_E4typeE @572
    _ZSt7forwardISt17_Rb_tree_iteratorISt4pairIKtSsEEEOT_RNSt16remove_referenceIS5_E4typeE @573
    _ZSt7forwardISt4pairIKSsP10sound_baseEEOT_RNSt16remove_referenceIS5_E4typeE @574
    _ZSt7forwardISt4pairIKSsP9draw_baseEEOT_RNSt16remove_referenceIS5_E4typeE @575
    _ZSt7forwardISt4pairISsP10sound_baseEEOT_RNSt16remove_referenceIS4_E4typeE @576
    _ZSt7forwardISt4pairISsP9draw_baseEEOT_RNSt16remove_referenceIS4_E4typeE @577
    _ZSt7forwardIbEOT_RNSt16remove_referenceIS0_E4typeE @578
    _ZSt9make_pairISsP10sound_baseESt4pairINSt17__decay_and_stripIT_E6__typeENS3_IT0_E6__typeEEOS4_OS7_ @579
    _ZSt9make_pairISsP9draw_baseESt4pairINSt17__decay_and_stripIT_E6__typeENS3_IT0_E6__typeEEOS4_OS7_ @580
    _ZSteqIcEN9__gnu_cxx11__enable_ifIXsrSt9__is_charIT_E7__valueEbE6__typeERKSbIS3_St11char_traitsIS3_ESaIS3_EESC_ @581
    _ZSteqIcSt11char_traitsIcESaIcEEbRKSbIT_T0_T1_EPKS3_ @582
    _ZStltIcSt11char_traitsIcESaIcEEbRKSbIT_T0_T1_ES8_ @583
    _ZStneIcSt11char_traitsIcESaIcEEbRKSbIT_T0_T1_EPKS3_ @584
    _ZStplIcSt11char_traitsIcESaIcEESbIT_T0_T1_EOS6_PKS3_ @585
    _ZStplIcSt11char_traitsIcESaIcEESbIT_T0_T1_EPKS3_OS6_ @586
    _ZStplIcSt11char_traitsIcESaIcEESbIT_T0_T1_EPKS3_RKS6_ @587
    _ZdlPvS_ @588
    _ZnwjPv @589
    _get_output_format @590
    _nm___ZN10ScriptWrap7NO_ARGSE @591 DATA
    printf @592
