EXPORTS
    _Z16helperGCFunctionPv @1
    _Z18helperDrawFunctionPv @2
    _Z19helperSoundFunctionPv @3
    _Z20helperEventsFunctionPv @4
    _Z20helperPluginFunctionPv @5
    _Z20helperUpdateFunctionPv @6
    _Z21helperPhysicsFunctionPv @7
    _ZN11LayerSystem10DrawLayersEv @8
    _ZN11LayerSystem11AddLayerSetEPKc @9
    _ZN11LayerSystem11DeleteLayerEj @10
    _ZN11LayerSystem15DeleteAllLayersEv @11
    _ZN11LayerSystem5hasIDEj @12
    _ZN11LayerSystem8AddLayerEPKc @13
    _ZN11LayerSystem8GetLayerEj @14
    _ZN11LayerSystemC1EP4Game @15
    _ZN11LayerSystemC2EP4Game @16
    _ZN11LayerSystemD1Ev @17
    _ZN11LayerSystemD2Ev @18
    _ZN14TriggerManager10GetTriggerEj @19
    _ZN14TriggerManager13UpdateTriggerEjj @20
    _ZN14TriggerManager14UpdateTriggersEj @21
    _ZN14TriggerManager15RegisterTriggerEPKc @22
    _ZN14TriggerManager17UnRegisterTriggerEj @23
    _ZN14TriggerManager21UpdateTriggerLocationE10math_pointj @24
    _ZN14TriggerManagerC1EP4Game @25
    _ZN14TriggerManagerC2EP4Game @26
    _ZN14TriggerManagerD1Ev @27
    _ZN14TriggerManagerD2Ev @28
    _ZN16BinarySearchTreeIj7TriggerE10insertNodeERPNS1_8TreeNodeERKjRKS0_ @29
    _ZN16BinarySearchTreeIj7TriggerE10removeNodeERPNS1_8TreeNodeERKj @30
    _ZN16BinarySearchTreeIj7TriggerE11getContentsEv @31
    _ZN16BinarySearchTreeIj7TriggerE12rem_swapNodeERPNS1_8TreeNodeES4_ @32
    _ZN16BinarySearchTreeIj7TriggerE6insertERKjRKS0_ @33
    _ZN16BinarySearchTreeIj7TriggerE6removeERKj @34
    _ZN16BinarySearchTreeIj7TriggerE8TreeNodeC1ERKjRKS0_PS2_S7_ @35
    _ZN16BinarySearchTreeIj7TriggerE8TreeNodeD1Ev @36
    _ZN16BinarySearchTreeIj7TriggerE8dumpNodeEPNS1_8TreeNodeERSt6vectorIS0_SaIS0_EE @37
    _ZN16BinarySearchTreeIj7TriggerE8freeTreeEPNS1_8TreeNodeE @38
    _ZN16BinarySearchTreeIj7TriggerE9getValRefEPNS1_8TreeNodeERKj @39
    _ZN16BinarySearchTreeIj7TriggerEC1Ev @40
    _ZN16BinarySearchTreeIj7TriggerED1Ev @41
    _ZN16BinarySearchTreeIj7TriggerEixERKj @42
    _ZN4Game10ReplaceHUDEPKc @43
    _ZN4Game10playSoundsEv @44
    _ZN4Game10runPhysicsEv @45
    _ZN4Game11FrameCapperEv @46
    _ZN4Game12HideMainMenuEv @47
    _ZN4Game12ShowMainMenuEv @48
    _ZN4Game12loadSaveDataERKSs @49
    _ZN4Game15GetCurrentLevelEv @50
    _ZN4Game15ReplaceMainMenuEPKc @51
    _ZN4Game17GetSaveDataHandleEv @52
    _ZN4Game17HideLoadingScreenEv @53
    _ZN4Game17LoadGameConstantsEPKc @54
    _ZN4Game17LoadGlobalModulesEPKc @55
    _ZN4Game17ShowLoadingScreenEv @56
    _ZN4Game19SetHeroUnitAsLoadedEv @57
    _ZN4Game19UpdateLoadingStatusEj @58
    _ZN4Game20ReplaceLoadingScreenEPKc @59
    _ZN4Game21UnsetHeroUnitAsLoadedEv @60
    _ZN4Game21initEditorFrameBufferEv @61
    _ZN4Game22ClearEditorFrameBufferEv @62
    _ZN4Game24SetHeroIDForCurrentLevelEj @63
    _ZN4Game3runEv @64
    _ZN4Game4initEv @65
    _ZN4Game6mainGCEv @66
    _ZN4Game7HideHUDEv @67
    _ZN4Game7LoadUIsEPKc @68
    _ZN4Game7ShowHUDEv @69
    _ZN4Game8LoadGameEPKc @70
    _ZN4Game8SaveDataERKSs @71
    _ZN4Game8loadRateE @72 DATA
    _ZN4Game8stopGameEv @73
    _ZN4Game9drawWorldEv @74
    _ZN4Game9loadLevelEPKc @75
    _ZN4GameC1EPKcb @76
    _ZN4GameC1Eb @77
    _ZN4GameC2EPKcb @78
    _ZN4GameC2Eb @79
    _ZN4GameD1Ev @80
    _ZN4GameD2Ev @81
    _ZN5LayerC1EPKcP4Gamej @82
    _ZN5LayerC2EPKcP4Gamej @83
    _ZN5LayerD1Ev @84
    _ZN5LayerD2Ev @85
    _ZN5Level10GetUnitIDsEv @86
    _ZN5Level11GetLayerIDsEv @87
    _ZN5Level12GetModuleIDsEv @88
    _ZN5Level13GetTriggerIDsEv @89
    _ZN5Level18killBackgrounMusicEv @90
    _ZN5Level19fadeBackgroundMusicEi @91
    _ZN5Level19playBackgroundMusicEv @92
    _ZN5Level8GetUIIDsEv @93
    _ZN5Level9SetHeroIDEj @94
    _ZN5LevelC1EP4GamePKc @95
    _ZN5LevelC2EP4GamePKc @96
    _ZN5LevelD1Ev @97
    _ZN5LevelD2Ev @98
    _ZN5RangeC1Ejj @99
    _ZN8GameInfoD2Ev @100
    _ZN9__gnu_cxx13new_allocatorI7TriggerE10deallocateEPS1_j @101
    _ZN9__gnu_cxx13new_allocatorI7TriggerE7destroyIS1_EEvPT_ @102
    _ZN9__gnu_cxx13new_allocatorI7TriggerE8allocateEjPKv @103
    _ZN9__gnu_cxx13new_allocatorI7TriggerE9constructIS1_IRKS1_EEEvPT_DpOT0_ @104
    _ZN9__gnu_cxx13new_allocatorI7TriggerEC2ERKS2_ @105
    _ZN9__gnu_cxx13new_allocatorI7TriggerEC2Ev @106
    _ZN9__gnu_cxx13new_allocatorI7TriggerED2Ev @107
    _ZN9__gnu_cxx13new_allocatorISt10_List_nodeI5LayerEE10deallocateEPS3_j @108
    _ZN9__gnu_cxx13new_allocatorISt10_List_nodeI5LayerEE7destroyIS3_EEvPT_ @109
    _ZN9__gnu_cxx13new_allocatorISt10_List_nodeI5LayerEE8allocateEjPKv @110
    _ZN9__gnu_cxx13new_allocatorISt10_List_nodeI5LayerEE9constructIS3_IS2_EEEvPT_DpOT0_ @111
    _ZN9__gnu_cxx13new_allocatorISt10_List_nodeI5LayerEEC2Ev @112
    _ZN9__gnu_cxx13new_allocatorISt10_List_nodeI5LayerEED2Ev @113
    _ZN9__gnu_cxx13new_allocatorISt10_List_nodeIjEE10deallocateEPS2_j @114
    _ZN9__gnu_cxx13new_allocatorISt10_List_nodeIjEE7destroyIS2_EEvPT_ @115
    _ZN9__gnu_cxx13new_allocatorISt10_List_nodeIjEE8allocateEjPKv @116
    _ZN9__gnu_cxx13new_allocatorISt10_List_nodeIjEE9constructIS2_IRKjEEEvPT_DpOT0_ @117
    _ZN9__gnu_cxx13new_allocatorISt10_List_nodeIjEE9constructIS2_IjEEEvPT_DpOT0_ @118
    _ZN9__gnu_cxx13new_allocatorISt10_List_nodeIjEEC2ERKS3_ @119
    _ZN9__gnu_cxx13new_allocatorISt10_List_nodeIjEEC2Ev @120
    _ZN9__gnu_cxx13new_allocatorISt10_List_nodeIjEED2Ev @121
    _ZN9__gnu_cxx13new_allocatorISt13_Rb_tree_nodeISt4pairIKtSsEEE10deallocateEPS5_j @122
    _ZN9__gnu_cxx13new_allocatorISt13_Rb_tree_nodeISt4pairIKtSsEEE7destroyIS5_EEvPT_ @123
    _ZN9__gnu_cxx13new_allocatorISt13_Rb_tree_nodeISt4pairIKtSsEEE8allocateEjPKv @124
    _ZN9__gnu_cxx13new_allocatorISt13_Rb_tree_nodeISt4pairIKtSsEEE9constructIS5_IRKS4_EEEvPT_DpOT0_ @125
    _ZN9__gnu_cxx13new_allocatorISt13_Rb_tree_nodeISt4pairIKtSsEEEC2ERKS6_ @126
    _ZN9__gnu_cxx13new_allocatorISt13_Rb_tree_nodeISt4pairIKtSsEEEC2Ev @127
    _ZN9__gnu_cxx13new_allocatorISt13_Rb_tree_nodeISt4pairIKtSsEEED2Ev @128
    _ZN9__gnu_cxx13new_allocatorISt4pairIKtSsEEC2ERKS4_ @129
    _ZN9__gnu_cxx13new_allocatorISt4pairIKtSsEEC2Ev @130
    _ZN9__gnu_cxx13new_allocatorISt4pairIKtSsEED2Ev @131
    _ZN9__gnu_cxx13new_allocatorIjE10deallocateEPjj @132
    _ZN9__gnu_cxx13new_allocatorIjE7destroyIjEEvPT_ @133
    _ZN9__gnu_cxx13new_allocatorIjE8allocateEjPKv @134
    _ZN9__gnu_cxx13new_allocatorIjE9constructIjIjEEEvPT_DpOT0_ @135
    _ZN9__gnu_cxx13new_allocatorIjEC2ERKS1_ @136
    _ZN9__gnu_cxx13new_allocatorIjEC2Ev @137
    _ZN9__gnu_cxx13new_allocatorIjED2Ev @138
    _ZN9__gnu_cxx14__alloc_traitsISaI7TriggerEE27_S_propagate_on_move_assignEv @139
    _ZN9__gnu_cxx14__alloc_traitsISaIjEE27_S_propagate_on_move_assignEv @140
    _ZN9__gnu_cxx17__normal_iteratorIP7TriggerSt6vectorIS1_SaIS1_EEEC1ERKS2_ @141
    _ZN9__gnu_cxx17__normal_iteratorIP7TriggerSt6vectorIS1_SaIS1_EEEppEi @142
    _ZN9__gnu_cxx17__normal_iteratorIPjSt6vectorIjSaIjEEEC1ERKS1_ @143
    _ZN9__gnu_cxx17__normal_iteratorIPjSt6vectorIjSaIjEEEppEv @144
    _ZN9__gnu_cxxeqIPjSt6vectorIjSaIjEEEEbRKNS_17__normal_iteratorIT_T0_EESA_ @145
    _ZN9__gnu_cxxltIP7TriggerSt6vectorIS1_SaIS1_EEEEbRKNS_17__normal_iteratorIT_T0_EESB_ @146
    _ZN9__gnu_cxxneIPjSt6vectorIjSaIjEEEEbRKNS_17__normal_iteratorIT_T0_EESA_ @147
    _ZNK11LayerSystem13GetLayerCountEv @148
    _ZNK16BinarySearchTreeIj7TriggerE10searchNodeEPNS1_8TreeNodeERKjRS0_ @149
    _ZNK16BinarySearchTreeIj7TriggerE5emptyEv @150
    _ZNK16BinarySearchTreeIj7TriggerE6searchERKjRS0_ @151
    _ZNK4Game12GetMainTimerEv @152
    _ZNK4Game14GetFrameBufferEv @153
    _ZNK4Game20GetSizeOfFrameBufferEv @154
    _ZNK4Game6noHeroEv @155
    _ZNK4Game9GetHeroIDEv @156
    _ZNK5Level10GetMapNameEv @157
    _ZNK5Level14isMusicPlayingEv @158
    _ZNK5Level9GetHeroIDEv @159
    _ZNK9__gnu_cxx13new_allocatorI7TriggerE8max_sizeEv @160
    _ZNK9__gnu_cxx13new_allocatorISt10_List_nodeI5LayerEE8max_sizeEv @161
    _ZNK9__gnu_cxx13new_allocatorISt10_List_nodeIjEE8max_sizeEv @162
    _ZNK9__gnu_cxx13new_allocatorISt13_Rb_tree_nodeISt4pairIKtSsEEE8max_sizeEv @163
    _ZNK9__gnu_cxx13new_allocatorIjE8max_sizeEv @164
    _ZNK9__gnu_cxx17__normal_iteratorIP7TriggerSt6vectorIS1_SaIS1_EEE4baseEv @165
    _ZNK9__gnu_cxx17__normal_iteratorIP7TriggerSt6vectorIS1_SaIS1_EEEptEv @166
    _ZNK9__gnu_cxx17__normal_iteratorIPjSt6vectorIjSaIjEEE4baseEv @167
    _ZNK9__gnu_cxx17__normal_iteratorIPjSt6vectorIjSaIjEEEdeEv @168
    _ZNKSt10_List_baseIjSaIjEE13get_allocatorEv @169
    _ZNKSt10_List_baseIjSaIjEE21_M_get_Node_allocatorEv @170
    _ZNKSt10_Select1stISt4pairIKtSsEEclERKS2_ @171
    _ZNKSt12_Vector_baseI7TriggerSaIS0_EE19_M_get_Tp_allocatorEv @172
    _ZNKSt12_Vector_baseIjSaIjEE19_M_get_Tp_allocatorEv @173
    _ZNKSt13move_iteratorIPjE4baseEv @174
    _ZNKSt14_List_iteratorI5LayerEdeEv @175
    _ZNKSt14_List_iteratorI5LayerEneERKS1_ @176
    _ZNKSt14_List_iteratorI5LayerEptEv @177
    _ZNKSt14_List_iteratorIjEdeEv @178
    _ZNKSt14_List_iteratorIjEneERKS0_ @179
    _ZNKSt16initializer_listISt4pairIKtSsEE3endEv @180
    _ZNKSt16initializer_listISt4pairIKtSsEE4sizeEv @181
    _ZNKSt16initializer_listISt4pairIKtSsEE5beginEv @182
    _ZNKSt17_Rb_tree_iteratorISt4pairIKtSsEEeqERKS3_ @183
    _ZNKSt23_Rb_tree_const_iteratorISt4pairIKtSsEE13_M_const_castEv @184
    _ZNKSt4lessItEclERKtS2_ @185
    _ZNKSt4listI5LayerSaIS0_EE4sizeEv @186
    _ZNKSt4listIjSaIjEE13get_allocatorEv @187
    _ZNKSt4listIjSaIjEE4sizeEv @188
    _ZNKSt4listIjSaIjEE5emptyEv @189
    _ZNKSt6vectorI7TriggerSaIS0_EE12_M_check_lenEjPKc @190
    _ZNKSt6vectorI7TriggerSaIS0_EE4sizeEv @191
    _ZNKSt6vectorI7TriggerSaIS0_EE8max_sizeEv @192
    _ZNKSt6vectorIjSaIjEE12_M_check_lenEjPKc @193
    _ZNKSt6vectorIjSaIjEE4sizeEv @194
    _ZNKSt6vectorIjSaIjEE8max_sizeEv @195
    _ZNKSt8_Rb_treeItSt4pairIKtSsESt10_Select1stIS2_ESt4lessItESaIS2_EE4sizeEv @196
    _ZNSaI7TriggerEC2ERKS0_ @197
    _ZNSaI7TriggerEC2Ev @198
    _ZNSaI7TriggerED2Ev @199
    _ZNSaISt10_List_nodeI5LayerEEC2Ev @200
    _ZNSaISt10_List_nodeI5LayerEED2Ev @201
    _ZNSaISt10_List_nodeIjEEC1IjEERKSaIT_E @202
    _ZNSaISt10_List_nodeIjEEC2ERKS1_ @203
    _ZNSaISt10_List_nodeIjEEC2Ev @204
    _ZNSaISt10_List_nodeIjEED1Ev @205
    _ZNSaISt10_List_nodeIjEED2Ev @206
    _ZNSaISt13_Rb_tree_nodeISt4pairIKtSsEEEC1IS2_EERKSaIT_E @207
    _ZNSaISt13_Rb_tree_nodeISt4pairIKtSsEEEC2ERKS4_ @208
    _ZNSaISt13_Rb_tree_nodeISt4pairIKtSsEEED1Ev @209
    _ZNSaISt13_Rb_tree_nodeISt4pairIKtSsEEED2Ev @210
    _ZNSaISt4pairIKtSsEEC1ERKS2_ @211
    _ZNSaISt4pairIKtSsEEC1Ev @212
    _ZNSaISt4pairIKtSsEED1Ev @213
    _ZNSaIjEC1ISt10_List_nodeIjEEERKSaIT_E @214
    _ZNSaIjEC2ERKS_ @215
    _ZNSaIjEC2Ev @216
    _ZNSaIjED1Ev @217
    _ZNSaIjED2Ev @218
    _ZNSt10_Iter_baseIPjLb0EE7_S_baseES0_ @219
    _ZNSt10_Iter_baseISt13move_iteratorIPjELb1EE7_S_baseES2_ @220
    _ZNSt10_List_baseI5LayerSaIS0_EE10_List_implC1Ev @221
    _ZNSt10_List_baseI5LayerSaIS0_EE10_List_implD1Ev @222
    _ZNSt10_List_baseI5LayerSaIS0_EE11_M_get_nodeEv @223
    _ZNSt10_List_baseI5LayerSaIS0_EE11_M_put_nodeEPSt10_List_nodeIS0_E @224
    _ZNSt10_List_baseI5LayerSaIS0_EE21_M_get_Node_allocatorEv @225
    _ZNSt10_List_baseI5LayerSaIS0_EE7_M_initEv @226
    _ZNSt10_List_baseI5LayerSaIS0_EE8_M_clearEv @227
    _ZNSt10_List_baseI5LayerSaIS0_EEC2Ev @228
    _ZNSt10_List_baseI5LayerSaIS0_EED2Ev @229
    _ZNSt10_List_baseIjSaIjEE10_List_implC1ERKSaISt10_List_nodeIjEE @230
    _ZNSt10_List_baseIjSaIjEE10_List_implC1Ev @231
    _ZNSt10_List_baseIjSaIjEE10_List_implD1Ev @232
    _ZNSt10_List_baseIjSaIjEE11_M_get_nodeEv @233
    _ZNSt10_List_baseIjSaIjEE11_M_put_nodeEPSt10_List_nodeIjE @234
    _ZNSt10_List_baseIjSaIjEE21_M_get_Node_allocatorEv @235
    _ZNSt10_List_baseIjSaIjEE7_M_initEv @236
    _ZNSt10_List_baseIjSaIjEE8_M_clearEv @237
    _ZNSt10_List_baseIjSaIjEEC2ERKSaISt10_List_nodeIjEE @238
    _ZNSt10_List_baseIjSaIjEEC2Ev @239
    _ZNSt10_List_baseIjSaIjEED2Ev @240
    _ZNSt10_List_nodeI5LayerEC1IIS0_EEEDpOT_ @241
    _ZNSt10_List_nodeI5LayerED1Ev @242
    _ZNSt10_List_nodeIjEC1IIRKjEEEDpOT_ @243
    _ZNSt10_List_nodeIjEC1IIjEEEDpOT_ @244
    _ZNSt11__alloc_neqISaISt10_List_nodeIjEELb1EE8_S_do_itERKS2_S5_ @245
    _ZNSt11__copy_moveILb1ELb1ESt26random_access_iterator_tagE8__copy_mIjEEPT_PKS3_S6_S4_ @246
    _ZNSt12_Destroy_auxILb0EE9__destroyIP7TriggerEEvT_S4_ @247
    _ZNSt12_Destroy_auxILb1EE9__destroyIPjEEvT_S3_ @248
    _ZNSt12_Vector_baseI7TriggerSaIS0_EE11_M_allocateEj @249
    _ZNSt12_Vector_baseI7TriggerSaIS0_EE12_Vector_impl12_M_swap_dataERS3_ @250
    _ZNSt12_Vector_baseI7TriggerSaIS0_EE12_Vector_implC1EOS1_ @251
    _ZNSt12_Vector_baseI7TriggerSaIS0_EE12_Vector_implC1Ev @252
    _ZNSt12_Vector_baseI7TriggerSaIS0_EE12_Vector_implD1Ev @253
    _ZNSt12_Vector_baseI7TriggerSaIS0_EE13_M_deallocateEPS0_j @254
    _ZNSt12_Vector_baseI7TriggerSaIS0_EE19_M_get_Tp_allocatorEv @255
    _ZNSt12_Vector_baseI7TriggerSaIS0_EEC2EOS2_ @256
    _ZNSt12_Vector_baseI7TriggerSaIS0_EEC2Ev @257
    _ZNSt12_Vector_baseI7TriggerSaIS0_EED2Ev @258
    _ZNSt12_Vector_baseIjSaIjEE11_M_allocateEj @259
    _ZNSt12_Vector_baseIjSaIjEE12_Vector_impl12_M_swap_dataERS2_ @260
    _ZNSt12_Vector_baseIjSaIjEE12_Vector_implC1EOS0_ @261
    _ZNSt12_Vector_baseIjSaIjEE12_Vector_implC1Ev @262
    _ZNSt12_Vector_baseIjSaIjEE12_Vector_implD1Ev @263
    _ZNSt12_Vector_baseIjSaIjEE13_M_deallocateEPjj @264
    _ZNSt12_Vector_baseIjSaIjEE19_M_get_Tp_allocatorEv @265
    _ZNSt12_Vector_baseIjSaIjEEC2EOS1_ @266
    _ZNSt12_Vector_baseIjSaIjEEC2Ev @267
    _ZNSt12_Vector_baseIjSaIjEED2Ev @268
    _ZNSt13_Rb_tree_nodeISt4pairIKtSsEEC1IIRKS2_EEEDpOT_ @269
    _ZNSt13_Rb_tree_nodeISt4pairIKtSsEED1Ev @270
    _ZNSt13move_iteratorIPjEC1ES0_ @271
    _ZNSt14_List_iteratorI5LayerEC1EPNSt8__detail15_List_node_baseE @272
    _ZNSt14_List_iteratorI5LayerEC1Ev @273
    _ZNSt14_List_iteratorI5LayerEppEi @274
    _ZNSt14_List_iteratorIjEC1EPNSt8__detail15_List_node_baseE @275
    _ZNSt14_List_iteratorIjEppEi @276
    _ZNSt14_List_iteratorIjEppEv @277
    _ZNSt16allocator_traitsISaI7TriggerEE10_S_destroyIS0_EENSt9enable_ifIXsrNS2_16__destroy_helperIT_EE5valueEvE4typeERS1_PS6_ @278
    _ZNSt16allocator_traitsISaI7TriggerEE11_S_max_sizeIKS1_EENSt9enable_ifIXsrNS2_16__maxsize_helperIT_EE5valueEjE4typeERS7_ @279
    _ZNSt16allocator_traitsISaI7TriggerEE12_S_constructIS0_IRKS0_EEENSt9enable_ifIXsrNS2_18__construct_helperIT_IDpT0_EEE5valueEvE4typeERS1_PS8_DpOS9_ @280
    _ZNSt16allocator_traitsISaI7TriggerEE7destroyIS0_EEvRS1_PT_ @281
    _ZNSt16allocator_traitsISaI7TriggerEE8max_sizeERKS1_ @282
    _ZNSt16allocator_traitsISaI7TriggerEE9constructIS0_IRKS0_EEEvRS1_PT_DpOT0_ @283
    _ZNSt16allocator_traitsISaIjEE10_S_destroyIjEENSt9enable_ifIXsrNS1_16__destroy_helperIT_EE5valueEvE4typeERS0_PS5_ @284
    _ZNSt16allocator_traitsISaIjEE11_S_max_sizeIKS0_EENSt9enable_ifIXsrNS1_16__maxsize_helperIT_EE5valueEjE4typeERS6_ @285
    _ZNSt16allocator_traitsISaIjEE12_S_constructIjIjEEENSt9enable_ifIXsrNS1_18__construct_helperIT_IDpT0_EEE5valueEvE4typeERS0_PS5_DpOS6_ @286
    _ZNSt16allocator_traitsISaIjEE7destroyIjEEvRS0_PT_ @287
    _ZNSt16allocator_traitsISaIjEE8max_sizeERKS0_ @288
    _ZNSt16allocator_traitsISaIjEE9constructIjIjEEEvRS0_PT_DpOT0_ @289
    _ZNSt17_Rb_tree_iteratorISt4pairIKtSsEEC1EPSt13_Rb_tree_nodeIS2_E @290
    _ZNSt17_Rb_tree_iteratorISt4pairIKtSsEEmmEv @291
    _ZNSt20__uninitialized_copyILb0EE13__uninit_copyIP7TriggerS3_EET0_T_S5_S4_ @292
    _ZNSt20__uninitialized_copyILb1EE13__uninit_copyISt13move_iteratorIPjES3_EET0_T_S6_S5_ @293
    _ZNSt23_Rb_tree_const_iteratorISt4pairIKtSsEEC1ERKSt17_Rb_tree_iteratorIS2_E @294
    _ZNSt23_Rb_tree_const_iteratorISt4pairIKtSsEEmmEv @295
    _ZNSt23_Rb_tree_const_iteratorISt4pairIKtSsEEppEv @296
    _ZNSt3mapItSsSt4lessItESaISt4pairIKtSsEEEC1ESt16initializer_listIS4_ERKS1_RKS5_ @297
    _ZNSt3mapItSsSt4lessItESaISt4pairIKtSsEEED1Ev @298
    _ZNSt4listI5LayerSaIS0_EE14_M_create_nodeIIS0_EEEPSt10_List_nodeIS0_EDpOT_ @299
    _ZNSt4listI5LayerSaIS0_EE3endEv @300
    _ZNSt4listI5LayerSaIS0_EE5beginEv @301
    _ZNSt4listI5LayerSaIS0_EE5clearEv @302
    _ZNSt4listI5LayerSaIS0_EE5eraseESt14_List_iteratorIS0_E @303
    _ZNSt4listI5LayerSaIS0_EE8_M_eraseESt14_List_iteratorIS0_E @304
    _ZNSt4listI5LayerSaIS0_EE9_M_insertIIS0_EEEvSt14_List_iteratorIS0_EDpOT_ @305
    _ZNSt4listI5LayerSaIS0_EE9push_backEOS0_ @306
    _ZNSt4listI5LayerSaIS0_EEC1Ev @307
    _ZNSt4listI5LayerSaIS0_EED1Ev @308
    _ZNSt4listIjSaIjEE11_M_transferESt14_List_iteratorIjES3_S3_ @309
    _ZNSt4listIjSaIjEE14_M_create_nodeIIRKjEEEPSt10_List_nodeIjEDpOT_ @310
    _ZNSt4listIjSaIjEE14_M_create_nodeIIjEEEPSt10_List_nodeIjEDpOT_ @311
    _ZNSt4listIjSaIjEE18_M_assign_dispatchIN9__gnu_cxx17__normal_iteratorIPjSt6vectorIjS0_EEEEEvT_S9_St12__false_type @312
    _ZNSt4listIjSaIjEE22_M_initialize_dispatchIN9__gnu_cxx17__normal_iteratorIPjSt6vectorIjS0_EEEEEvT_S9_St12__false_type @313
    _ZNSt4listIjSaIjEE25_M_check_equal_allocatorsERS1_ @314
    _ZNSt4listIjSaIjEE3endEv @315
    _ZNSt4listIjSaIjEE5beginEv @316
    _ZNSt4listIjSaIjEE5eraseESt14_List_iteratorIjE @317
    _ZNSt4listIjSaIjEE5eraseESt14_List_iteratorIjES3_ @318
    _ZNSt4listIjSaIjEE6assignIN9__gnu_cxx17__normal_iteratorIPjSt6vectorIjS0_EEEEEvT_S9_ @319
    _ZNSt4listIjSaIjEE6insertIN9__gnu_cxx17__normal_iteratorIPjSt6vectorIjS0_EEEEEvSt14_List_iteratorIjET_SB_ @320
    _ZNSt4listIjSaIjEE6spliceESt14_List_iteratorIjEOS1_ @321
    _ZNSt4listIjSaIjEE6spliceESt14_List_iteratorIjERS1_ @322
    _ZNSt4listIjSaIjEE8_M_eraseESt14_List_iteratorIjE @323
    _ZNSt4listIjSaIjEE9_M_insertIIRKjEEEvSt14_List_iteratorIjEDpOT_ @324
    _ZNSt4listIjSaIjEE9_M_insertIIjEEEvSt14_List_iteratorIjEDpOT_ @325
    _ZNSt4listIjSaIjEE9push_backEOj @326
    _ZNSt4listIjSaIjEE9push_backERKj @327
    _ZNSt4listIjSaIjEEC1Ev @328
    _ZNSt4listIjSaIjEEC1IN9__gnu_cxx17__normal_iteratorIPjSt6vectorIjS0_EEEEET_S9_RKS0_ @329
    _ZNSt4listIjSaIjEED1Ev @330
    _ZNSt4pairIKtSsEC1ERKS1_ @331
    _ZNSt4pairIKtSsEC1I14StatementTypesRA10_KcvEEOT_OT0_ @332
    _ZNSt4pairIKtSsEC1I14StatementTypesRA11_KcvEEOT_OT0_ @333
    _ZNSt4pairIKtSsEC1I14StatementTypesRA12_KcvEEOT_OT0_ @334
    _ZNSt4pairIKtSsEC1I14StatementTypesRA13_KcvEEOT_OT0_ @335
    _ZNSt4pairIKtSsEC1I14StatementTypesRA15_KcvEEOT_OT0_ @336
    _ZNSt4pairIKtSsEC1I14StatementTypesRA17_KcvEEOT_OT0_ @337
    _ZNSt4pairIKtSsEC1I14StatementTypesRA18_KcvEEOT_OT0_ @338
    _ZNSt4pairIKtSsEC1I14StatementTypesRA5_KcvEEOT_OT0_ @339
    _ZNSt4pairIKtSsEC1I14StatementTypesRA6_KcvEEOT_OT0_ @340
    _ZNSt4pairIKtSsEC1I14StatementTypesRA7_KcvEEOT_OT0_ @341
    _ZNSt4pairIKtSsEC1I14StatementTypesRA8_KcvEEOT_OT0_ @342
    _ZNSt4pairIKtSsEC1I14StatementTypesRA9_KcvEEOT_OT0_ @343
    _ZNSt4pairIKtSsED1Ev @344
    _ZNSt4pairISt17_Rb_tree_iteratorIS_IKtSsEEbEC1IRS3_bvEEOT_OT0_ @345
    _ZNSt4pairISt17_Rb_tree_iteratorIS_IKtSsEEbEC1IS3_bvEEOT_OT0_ @346
    _ZNSt6vectorI7TriggerSaIS0_EE14_M_move_assignEOS2_St17integral_constantIbLb1EE @347
    _ZNSt6vectorI7TriggerSaIS0_EE19_M_emplace_back_auxIIRKS0_EEEvDpOT_ @348
    _ZNSt6vectorI7TriggerSaIS0_EE3endEv @349
    _ZNSt6vectorI7TriggerSaIS0_EE5beginEv @350
    _ZNSt6vectorI7TriggerSaIS0_EE9push_backERKS0_ @351
    _ZNSt6vectorI7TriggerSaIS0_EEC1EOS2_ @352
    _ZNSt6vectorI7TriggerSaIS0_EEC1Ev @353
    _ZNSt6vectorI7TriggerSaIS0_EED1Ev @354
    _ZNSt6vectorI7TriggerSaIS0_EEaSEOS2_ @355
    _ZNSt6vectorIjSaIjEE12emplace_backIIjEEEvDpOT_ @356
    _ZNSt6vectorIjSaIjEE14_M_move_assignEOS1_St17integral_constantIbLb1EE @357
    _ZNSt6vectorIjSaIjEE19_M_emplace_back_auxIIjEEEvDpOT_ @358
    _ZNSt6vectorIjSaIjEE3endEv @359
    _ZNSt6vectorIjSaIjEE5beginEv @360
    _ZNSt6vectorIjSaIjEE9push_backEOj @361
    _ZNSt6vectorIjSaIjEEC1EOS1_ @362
    _ZNSt6vectorIjSaIjEEC1Ev @363
    _ZNSt6vectorIjSaIjEED1Ev @364
    _ZNSt6vectorIjSaIjEEaSEOS1_ @365
    _ZNSt8_Rb_treeItSt4pairIKtSsESt10_Select1stIS2_ESt4lessItESaIS2_EE10_M_insert_IRKS2_EESt17_Rb_tree_iteratorIS2_EPKSt18_Rb_tree_node_baseSG_OT_ @366
    _ZNSt8_Rb_treeItSt4pairIKtSsESt10_Select1stIS2_ESt4lessItESaIS2_EE11_M_get_nodeEv @367
    _ZNSt8_Rb_treeItSt4pairIKtSsESt10_Select1stIS2_ESt4lessItESaIS2_EE11_M_leftmostEv @368
    _ZNSt8_Rb_treeItSt4pairIKtSsESt10_Select1stIS2_ESt4lessItESaIS2_EE11_M_put_nodeEPSt13_Rb_tree_nodeIS2_E @369
    _ZNSt8_Rb_treeItSt4pairIKtSsESt10_Select1stIS2_ESt4lessItESaIS2_EE12_M_rightmostEv @370
    _ZNSt8_Rb_treeItSt4pairIKtSsESt10_Select1stIS2_ESt4lessItESaIS2_EE13_Rb_tree_implIS6_Lb1EE13_M_initializeEv @371
    _ZNSt8_Rb_treeItSt4pairIKtSsESt10_Select1stIS2_ESt4lessItESaIS2_EE13_Rb_tree_implIS6_Lb1EEC1ERKS6_OSaISt13_Rb_tree_nodeIS2_EE @372
    _ZNSt8_Rb_treeItSt4pairIKtSsESt10_Select1stIS2_ESt4lessItESaIS2_EE13_Rb_tree_implIS6_Lb1EED1Ev @373
    _ZNSt8_Rb_treeItSt4pairIKtSsESt10_Select1stIS2_ESt4lessItESaIS2_EE14_M_create_nodeIIRKS2_EEEPSt13_Rb_tree_nodeIS2_EDpOT_ @374
    _ZNSt8_Rb_treeItSt4pairIKtSsESt10_Select1stIS2_ESt4lessItESaIS2_EE15_M_destroy_nodeEPSt13_Rb_tree_nodeIS2_E @375
    _ZNSt8_Rb_treeItSt4pairIKtSsESt10_Select1stIS2_ESt4lessItESaIS2_EE16_M_insert_uniqueIPKS2_EEvT_SC_ @376
    _ZNSt8_Rb_treeItSt4pairIKtSsESt10_Select1stIS2_ESt4lessItESaIS2_EE16_M_insert_uniqueIRKS2_EES0_ISt17_Rb_tree_iteratorIS2_EbEOT_ @377
    _ZNSt8_Rb_treeItSt4pairIKtSsESt10_Select1stIS2_ESt4lessItESaIS2_EE17_M_insert_unique_IRKS2_EESt17_Rb_tree_iteratorIS2_ESt23_Rb_tree_const_iteratorIS2_EOT_ @378
    _ZNSt8_Rb_treeItSt4pairIKtSsESt10_Select1stIS2_ESt4lessItESaIS2_EE21_M_get_Node_allocatorEv @379
    _ZNSt8_Rb_treeItSt4pairIKtSsESt10_Select1stIS2_ESt4lessItESaIS2_EE3endEv @380
    _ZNSt8_Rb_treeItSt4pairIKtSsESt10_Select1stIS2_ESt4lessItESaIS2_EE5beginEv @381
    _ZNSt8_Rb_treeItSt4pairIKtSsESt10_Select1stIS2_ESt4lessItESaIS2_EE6_M_endEv @382
    _ZNSt8_Rb_treeItSt4pairIKtSsESt10_Select1stIS2_ESt4lessItESaIS2_EE6_S_keyEPKSt13_Rb_tree_nodeIS2_E @383
    _ZNSt8_Rb_treeItSt4pairIKtSsESt10_Select1stIS2_ESt4lessItESaIS2_EE6_S_keyEPKSt18_Rb_tree_node_base @384
    _ZNSt8_Rb_treeItSt4pairIKtSsESt10_Select1stIS2_ESt4lessItESaIS2_EE7_S_leftEPSt18_Rb_tree_node_base @385
    _ZNSt8_Rb_treeItSt4pairIKtSsESt10_Select1stIS2_ESt4lessItESaIS2_EE8_M_beginEv @386
    _ZNSt8_Rb_treeItSt4pairIKtSsESt10_Select1stIS2_ESt4lessItESaIS2_EE8_M_eraseEPSt13_Rb_tree_nodeIS2_E @387
    _ZNSt8_Rb_treeItSt4pairIKtSsESt10_Select1stIS2_ESt4lessItESaIS2_EE8_S_rightEPKSt18_Rb_tree_node_base @388
    _ZNSt8_Rb_treeItSt4pairIKtSsESt10_Select1stIS2_ESt4lessItESaIS2_EE8_S_rightEPSt18_Rb_tree_node_base @389
    _ZNSt8_Rb_treeItSt4pairIKtSsESt10_Select1stIS2_ESt4lessItESaIS2_EE8_S_valueEPKSt13_Rb_tree_nodeIS2_E @390
    _ZNSt8_Rb_treeItSt4pairIKtSsESt10_Select1stIS2_ESt4lessItESaIS2_EE8_S_valueEPKSt18_Rb_tree_node_base @391
    _ZNSt8_Rb_treeItSt4pairIKtSsESt10_Select1stIS2_ESt4lessItESaIS2_EEC1ERKS6_RKS7_ @392
    _ZNSt8_Rb_treeItSt4pairIKtSsESt10_Select1stIS2_ESt4lessItESaIS2_EED1Ev @393
    _ZSt10_ConstructI7TriggerIRS0_EEvPT_DpOT0_ @394
    _ZSt11__addressofI5LayerEPT_RS1_ @395
    _ZSt11__addressofI7TriggerEPT_RS1_ @396
    _ZSt12__miter_baseISt13move_iteratorIPjEENSt11_Miter_baseIT_E13iterator_typeES4_ @397
    _ZSt12__niter_baseIPjENSt11_Niter_baseIT_E13iterator_typeES2_ @398
    _ZSt13__copy_move_aILb1EPjS0_ET1_T0_S2_S1_ @399
    _ZSt14__copy_move_a2ILb1EPjS0_ET1_T0_S2_S1_ @400
    _ZSt15__alloc_on_moveISaI7TriggerEEvRT_S3_ @401
    _ZSt15__alloc_on_moveISaIjEEvRT_S2_ @402
    _ZSt18__do_alloc_on_moveISaI7TriggerEEvRT_S3_St17integral_constantIbLb0EE @403
    _ZSt18__do_alloc_on_moveISaIjEEvRT_S2_St17integral_constantIbLb0EE @404
    _ZSt18uninitialized_copyIP7TriggerS1_ET0_T_S3_S2_ @405
    _ZSt18uninitialized_copyISt13move_iteratorIPjES1_ET0_T_S4_S3_ @406
    _ZSt22__uninitialized_copy_aIP7TriggerS1_S0_ET0_T_S3_S2_RSaIT1_E @407
    _ZSt22__uninitialized_copy_aISt13move_iteratorIPjES1_jET0_T_S4_S3_RSaIT1_E @408
    _ZSt32__make_move_if_noexcept_iteratorIP7TriggerS1_ET0_T_ @409
    _ZSt32__make_move_if_noexcept_iteratorIPjSt13move_iteratorIS0_EET0_T_ @410
    _ZSt34__uninitialized_move_if_noexcept_aIP7TriggerS1_SaIS0_EET0_T_S4_S3_RT1_ @411
    _ZSt34__uninitialized_move_if_noexcept_aIPjS0_SaIjEET0_T_S3_S2_RT1_ @412
    _ZSt3maxIjERKT_S2_S2_ @413
    _ZSt4copyISt13move_iteratorIPjES1_ET0_T_S4_S3_ @414
    _ZSt4moveIR5LayerEONSt16remove_referenceIT_E4typeEOS3_ @415
    _ZSt4moveIRP7TriggerEONSt16remove_referenceIT_E4typeEOS4_ @416
    _ZSt4moveIRPjEONSt16remove_referenceIT_E4typeEOS3_ @417
    _ZSt4moveIRSaI7TriggerEEONSt16remove_referenceIT_E4typeEOS4_ @418
    _ZSt4moveIRSaISt13_Rb_tree_nodeISt4pairIKtSsEEEEONSt16remove_referenceIT_E4typeEOS8_ @419
    _ZSt4moveIRSaIjEEONSt16remove_referenceIT_E4typeEOS3_ @420
    _ZSt4moveIRSsEONSt16remove_referenceIT_E4typeEOS2_ @421
    _ZSt4moveIRSt4listIjSaIjEEEONSt16remove_referenceIT_E4typeEOS5_ @422
    _ZSt4moveIRSt6vectorI7TriggerSaIS1_EEEONSt16remove_referenceIT_E4typeEOS6_ @423
    _ZSt4moveIRSt6vectorIjSaIjEEEONSt16remove_referenceIT_E4typeEOS5_ @424
    _ZSt4moveIRjEONSt16remove_referenceIT_E4typeEOS2_ @425
    _ZSt4swapIP7TriggerEvRT_S3_ @426
    _ZSt4swapIPjEvRT_S2_ @427
    _ZSt7forwardI14StatementTypesEOT_RNSt16remove_referenceIS1_E4typeE @428
    _ZSt7forwardI5LayerEOT_RNSt16remove_referenceIS1_E4typeE @429
    _ZSt7forwardIR7TriggerEOT_RNSt16remove_referenceIS2_E4typeE @430
    _ZSt7forwardIRA10_KcEOT_RNSt16remove_referenceIS3_E4typeE @431
    _ZSt7forwardIRA11_KcEOT_RNSt16remove_referenceIS3_E4typeE @432
    _ZSt7forwardIRA12_KcEOT_RNSt16remove_referenceIS3_E4typeE @433
    _ZSt7forwardIRA13_KcEOT_RNSt16remove_referenceIS3_E4typeE @434
    _ZSt7forwardIRA15_KcEOT_RNSt16remove_referenceIS3_E4typeE @435
    _ZSt7forwardIRA17_KcEOT_RNSt16remove_referenceIS3_E4typeE @436
    _ZSt7forwardIRA18_KcEOT_RNSt16remove_referenceIS3_E4typeE @437
    _ZSt7forwardIRA5_KcEOT_RNSt16remove_referenceIS3_E4typeE @438
    _ZSt7forwardIRA6_KcEOT_RNSt16remove_referenceIS3_E4typeE @439
    _ZSt7forwardIRA7_KcEOT_RNSt16remove_referenceIS3_E4typeE @440
    _ZSt7forwardIRA8_KcEOT_RNSt16remove_referenceIS3_E4typeE @441
    _ZSt7forwardIRA9_KcEOT_RNSt16remove_referenceIS3_E4typeE @442
    _ZSt7forwardIRK7TriggerEOT_RNSt16remove_referenceIS3_E4typeE @443
    _ZSt7forwardIRKSt4pairIKtSsEEOT_RNSt16remove_referenceIS5_E4typeE @444
    _ZSt7forwardIRKjEOT_RNSt16remove_referenceIS2_E4typeE @445
    _ZSt7forwardIRSt17_Rb_tree_iteratorISt4pairIKtSsEEEOT_RNSt16remove_referenceIS6_E4typeE @446
    _ZSt7forwardISt17_Rb_tree_iteratorISt4pairIKtSsEEEOT_RNSt16remove_referenceIS5_E4typeE @447
    _ZSt7forwardIbEOT_RNSt16remove_referenceIS0_E4typeE @448
    _ZSt7forwardIjEOT_RNSt16remove_referenceIS0_E4typeE @449
    _ZSt8_DestroyI7TriggerEvPT_ @450
    _ZSt8_DestroyIP7TriggerEvT_S2_ @451
    _ZSt8_DestroyIP7TriggerS0_EvT_S2_RSaIT0_E @452
    _ZSt8_DestroyIPjEvT_S1_ @453
    _ZSt8_DestroyIPjjEvT_S1_RSaIT0_E @454
    _ZStplIcSt11char_traitsIcESaIcEESbIT_T0_T1_EOS6_PKS3_ @455
    _ZStplIcSt11char_traitsIcESaIcEESbIT_T0_T1_EOS6_RKS6_ @456
    _ZStplIcSt11char_traitsIcESaIcEESbIT_T0_T1_EOS6_S7_ @457
    _ZStplIcSt11char_traitsIcESaIcEESbIT_T0_T1_EPKS3_OS6_ @458
    _ZdlPvS_ @459
    _ZnwjPv @460
    _get_output_format @461
