EXPORTS
    _Z10findStringPKcS0_i @1
    _Z10searchCharcSs @2
    _Z11transferStrP5pCharPc @3
    _Z13capitalizeStrRKSs @4
    _Z13lowerCaseCharc @5
    _Z14capitalizeCharc @6
    _Z14shiftArrayLeftPci @7
    _Z14shiftArrayLeftPcii @8
    _Z15checkUTF8StringRKSs @9
    _Z15replaceStrInStrSsRKSsS0_b @10
    _Z15searchCharIndexcPc @11
    _Z15searchCharIndexcSsi @12
    _Z16replaceCharInStrSsccb @13
    _Z16scientificFormatRKSsj @14
    _Z16scientificFormatfj @15
    _Z17convertASCII2UTF8RKSs @16
    _Z17convertUTF162UTF8RKSs @17
    _Z17convertUTF322UTF8RKSs @18
    _Z17convertUTF82UTF16RKSs @19
    _Z17convertUTF82UTF32RKSs @20
    _Z17removeCharFromStrcPKc @21
    _Z17reverseStackOrderISt5stackI9SQLiteRowSt5dequeIS1_SaIS1_EEEET_RKS6_ @22
    _Z17reverseStackOrderISt5stackIjSt5dequeIjSaIjEEEET_RKS5_ @23
    _Z21createPCharFromBufferPci @24
    _Z23removeLeadingWhiteSpaceRKSs @25
    _Z25removeMultipleCharFromStrcPKc @26
    _Z26getCharArrayFromConstArrayRKSs @27
    _Z26shiftLeadingExponentZeroesPcj @28
    _Z29changeProgramWorkingDirectoryPc @29
    _Z5isNumRSs @30
    _Z5rounddi @31
    _Z5slicePcii @32
    _Z6irounddi @33
    _Z8copyfileRKSsS0_b @34
    _Z8fuseStrsSsSs @35
    _Z8intToStri @36
    _Z8numToIntd @37
    _Z8numToStrd @38
    _Z8sliceStrSsii @39
    _Z9cStrToIntPKc @40
    _Z9cStrToNumPKc @41
    _Z9charToIntc @42
    _ZGVZN4utf815replace_invalidIN9__gnu_cxx17__normal_iteratorIPKcSsEESt20back_insert_iteratorISsEEET0_T_S9_S8_E18replacement_marker @43 DATA
    _ZN10SQLiteWrap10isSQLiteDBEPKc @44
    _ZN10SQLiteWrap10saveResultEP12sqlite3_stmt @45
    _ZN10SQLiteWrap11getColCountEv @46
    _ZN10SQLiteWrap12ClearResultsEv @47
    _ZN10SQLiteWrap14openConnectionEPKc @48
    _ZN10SQLiteWrap14stepThroughRowEP12sqlite3_stmt @49
    _ZN10SQLiteWrap15closeConnectionEv @50
    _ZN10SQLiteWrap5queryERKSs @51
    _ZN10SQLiteWrap6popRowEv @52
    _ZN10SQLiteWrap7popRowsEv @53
    _ZN10SQLiteWrapC1EPKc @54
    _ZN10SQLiteWrapC2EPKc @55
    _ZN10SQLiteWrapD1Ev @56
    _ZN10SQLiteWrapD2Ev @57
    _ZN10psudo_typeC1EOS_ @58
    _ZN10psudo_typeC1ERKS_ @59
    _ZN10psudo_typeC1Ev @60
    _ZN10psudo_typeD1Ev @61
    _ZN10psudo_typeaSEOS_ @62
    _ZN10psudo_typeaSERKS_ @63
    _ZN11SQLiteError11printNoticeEv @64
    _ZN11SQLiteError16NULL_SQLITE3_PTRE @65 DATA
    _ZN11SQLiteError9log_errorEjRP7sqlite3 @66
    _ZN11SQLiteErrorC2Ev @67
    _ZN12SQLGenerator16prepareStatementERKSsS1_S1_S1_S1_j @68
    _ZN12SQLGenerator8WILDCARDE @69 DATA
    _ZN12SQLGeneratorC2Ev @70
    _ZN16BinarySearchTreeIjP6IONodeE10insertNodeERPNS2_8TreeNodeERKjRKS1_ @71
    _ZN16BinarySearchTreeIjP6IONodeE10removeNodeERPNS2_8TreeNodeERKj @72
    _ZN16BinarySearchTreeIjP6IONodeE11getContentsEv @73
    _ZN16BinarySearchTreeIjP6IONodeE12rem_swapNodeERPNS2_8TreeNodeES5_ @74
    _ZN16BinarySearchTreeIjP6IONodeE6insertERKjRKS1_ @75
    _ZN16BinarySearchTreeIjP6IONodeE6removeERKj @76
    _ZN16BinarySearchTreeIjP6IONodeE8TreeNodeC1ERKjRKS1_PS3_S8_ @77
    _ZN16BinarySearchTreeIjP6IONodeE8dumpNodeEPNS2_8TreeNodeERSt6vectorIS1_SaIS1_EE @78
    _ZN16BinarySearchTreeIjP6IONodeE8freeTreeEPNS2_8TreeNodeE @79
    _ZN16BinarySearchTreeIjP6IONodeEC1Ev @80
    _ZN16BinarySearchTreeIjP6IONodeED1Ev @81
    _ZN3sql9SQLStringC1EPKc @82
    _ZN3sql9SQLStringC1ERKSs @83
    _ZN3sql9SQLStringD1Ev @84
    _ZN4utf812find_invalidIN9__gnu_cxx17__normal_iteratorIPKcSsEEEET_S6_S6_ @85
    _ZN4utf812invalid_utf8C1Eh @86
    _ZN4utf812invalid_utf8D0Ev @87
    _ZN4utf812invalid_utf8D1Ev @88
    _ZN4utf813invalid_utf16C1Et @89
    _ZN4utf813invalid_utf16D0Ev @90
    _ZN4utf813invalid_utf16D1Ev @91
    _ZN4utf815not_enough_roomC1Ev @92
    _ZN4utf815not_enough_roomD0Ev @93
    _ZN4utf815not_enough_roomD1Ev @94
    _ZN4utf815replace_invalidIN9__gnu_cxx17__normal_iteratorIPKcSsEESt20back_insert_iteratorISsEEET0_T_S9_S8_ @95
    _ZN4utf815replace_invalidIN9__gnu_cxx17__normal_iteratorIPKcSsEESt20back_insert_iteratorISsEEET0_T_S9_S8_j @96
    _ZN4utf818invalid_code_pointC1Ej @97
    _ZN4utf818invalid_code_pointD0Ev @98
    _ZN4utf818invalid_code_pointD1Ev @99
    _ZN4utf84nextIN9__gnu_cxx17__normal_iteratorIPKcSsEEEEjRT_S6_ @100
    _ZN4utf86appendISt20back_insert_iteratorISsEEET_jS3_ @101
    _ZN4utf88internal12is_surrogateIjEEbT_ @102
    _ZN4utf88internal13validate_nextIN9__gnu_cxx17__normal_iteratorIPKcSsEEEENS0_9utf_errorERT_S8_ @103
    _ZN4utf88internal13validate_nextIN9__gnu_cxx17__normal_iteratorIPKcSsEEEENS0_9utf_errorERT_S8_Rj @104
    _ZN4utf88internal14get_sequence_1IN9__gnu_cxx17__normal_iteratorIPKcSsEEEENS0_9utf_errorERT_S8_Rj @105
    _ZN4utf88internal14get_sequence_2IN9__gnu_cxx17__normal_iteratorIPKcSsEEEENS0_9utf_errorERT_S8_Rj @106
    _ZN4utf88internal14get_sequence_3IN9__gnu_cxx17__normal_iteratorIPKcSsEEEENS0_9utf_errorERT_S8_Rj @107
    _ZN4utf88internal14get_sequence_4IN9__gnu_cxx17__normal_iteratorIPKcSsEEEENS0_9utf_errorERT_S8_Rj @108
    _ZN4utf88internal15increase_safelyIN9__gnu_cxx17__normal_iteratorIPKcSsEEEENS0_9utf_errorERT_S8_ @109
    _ZN4utf88internal15sequence_lengthIN9__gnu_cxx17__normal_iteratorIPKcSsEEEENSt15iterator_traitsIT_E15difference_typeES8_ @110
    _ZN4utf88internal17is_lead_surrogateIjEEbT_ @111
    _ZN4utf88internal18is_trail_surrogateIjEEbT_ @112
    _ZN4utf88internal19is_code_point_validIjEEbT_ @113
    _ZN4utf88internal20is_overlong_sequenceIiEEbjT_ @114
    _ZN4utf88internal5mask8IcEEhT_ @115
    _ZN4utf88internal6mask16IcEEtT_ @116
    _ZN4utf88internal6mask16IiEEtT_ @117
    _ZN4utf88internal8is_trailIcEEbT_ @118
    _ZN4utf88is_validIN9__gnu_cxx17__normal_iteratorIPKcSsEEEEbT_S6_ @119
    _ZN4utf88utf16to8IN9__gnu_cxx17__normal_iteratorIPKcSsEESt20back_insert_iteratorISsEEET0_T_S9_S8_ @120
    _ZN4utf88utf32to8ISt20back_insert_iteratorISsEN9__gnu_cxx17__normal_iteratorIPKcSsEEEET_T0_S9_S8_ @121
    _ZN4utf88utf8to16ISt20back_insert_iteratorISsEN9__gnu_cxx17__normal_iteratorIPKcSsEEEET_T0_S9_S8_ @122
    _ZN4utf88utf8to32IN9__gnu_cxx17__normal_iteratorIPKcSsEESt20back_insert_iteratorISsEEET0_T_S9_S8_ @123
    _ZN4utf89exceptionC2Ev @124
    _ZN4utf89exceptionD0Ev @125
    _ZN4utf89exceptionD1Ev @126
    _ZN4utf89exceptionD2Ev @127
    _ZN5MySQL10disconnectEv @128
    _ZN5MySQL10getResultsEv @129
    _ZN5MySQL10hasResultsEv @130
    _ZN5MySQL12CleanResultsEv @131
    _ZN5MySQL12DEFAULT_HOSTE @132 DATA
    _ZN5MySQL15validConnectionERKSs @133
    _ZN5MySQL17DEFAULT_COL_INDEXE @134 DATA
    _ZN5MySQL7connectEPKcS1_S1_S1_ @135
    _ZN5MySQL7queryDBERKSsb @136
    _ZN5MySQL8rowCountEv @137
    _ZN5MySQL9error_logERN3sql12SQLExceptionE @138
    _ZN5MySQL9getResultERSsRKSs @139
    _ZN5MySQL9getResultERSsj @140
    _ZN5MySQL9getResultERbRKSs @141
    _ZN5MySQL9getResultERbj @142
    _ZN5MySQL9getResultERcRKSs @143
    _ZN5MySQL9getResultERcj @144
    _ZN5MySQL9getResultERdRKSs @145
    _ZN5MySQL9getResultERdj @146
    _ZN5MySQL9getResultERiRKSs @147
    _ZN5MySQL9getResultERij @148
    _ZN5MySQL9reconnectEPKcS1_S1_S1_ @149
    _ZN5MySQLC1EPKcS1_S1_S1_ @150
    _ZN5MySQLC2EPKcS1_S1_S1_ @151
    _ZN5MySQLD1Ev @152
    _ZN5MySQLD2Ev @153
    _ZN6IONode11GetDataBaseEv @154
    _ZN6IONode7GetFileEv @155
    _ZN6IONode8DecCountEv @156
    _ZN6IONode8IncCountEv @157
    _ZN6IONodeC1EbjPKcb @158
    _ZN6IONodeC2EbjPKcb @159
    _ZN6IONodeD1Ev @160
    _ZN6IONodeD2Ev @161
    _ZN8DataBase10disconnectEv @162
    _ZN8DataBase5queryERKSs @163
    _ZN8DataBase7connectEPKc @164
    _ZN8DataBase9GetResultERSsj @165
    _ZN8DataBase9GetResultERSt6vectorI10psudo_typeSaIS1_EEj @166
    _ZN8DataBase9GetResultERbj @167
    _ZN8DataBase9GetResultERcj @168
    _ZN8DataBase9GetResultERij @169
    _ZN8DataBaseC1EPKc @170
    _ZN8DataBaseC2EPKc @171
    _ZN8DataBaseD1Ev @172
    _ZN8DataBaseD2Ev @173
    _ZN9IOManager11GetDataBaseEj @174
    _ZN9IOManager12RegisterFileEPKcb @175
    _ZN9IOManager16RegisterDataBaseEPKc @176
    _ZN9IOManager17CloseDBConnectionEj @177
    _ZN9IOManager7GetFileEj @178
    _ZN9IOManager9CloseFileEj @179
    _ZN9IOManagerC1EP4Game @180
    _ZN9IOManagerC2EP4Game @181
    _ZN9IOManagerD1Ev @182
    _ZN9IOManagerD2Ev @183
    _ZN9SQLiteRow9CleanDataEv @184
    _ZN9SQLiteRow9insertColE10psudo_type @185
    _ZN9SQLiteRowC1ERKS_ @186
    _ZN9SQLiteRowC1Ev @187
    _ZN9SQLiteRowD1Ev @188
    _ZN9__gnu_cxx13new_allocatorI10psudo_typeE10deallocateEPS1_j @189
    _ZN9__gnu_cxx13new_allocatorI10psudo_typeE7destroyIS1_EEvPT_ @190
    _ZN9__gnu_cxx13new_allocatorI10psudo_typeE8allocateEjPKv @191
    _ZN9__gnu_cxx13new_allocatorI10psudo_typeE9constructIS1_IRKS1_EEEvPT_DpOT0_ @192
    _ZN9__gnu_cxx13new_allocatorI10psudo_typeEC2ERKS2_ @193
    _ZN9__gnu_cxx13new_allocatorI10psudo_typeEC2Ev @194
    _ZN9__gnu_cxx13new_allocatorI10psudo_typeED2Ev @195
    _ZN9__gnu_cxx13new_allocatorI9SQLiteRowE10deallocateEPS1_j @196
    _ZN9__gnu_cxx13new_allocatorI9SQLiteRowE7destroyIS1_EEvPT_ @197
    _ZN9__gnu_cxx13new_allocatorI9SQLiteRowE8allocateEjPKv @198
    _ZN9__gnu_cxx13new_allocatorI9SQLiteRowE9constructIS1_IRKS1_EEEvPT_DpOT0_ @199
    _ZN9__gnu_cxx13new_allocatorI9SQLiteRowEC2ERKS2_ @200
    _ZN9__gnu_cxx13new_allocatorI9SQLiteRowEC2Ev @201
    _ZN9__gnu_cxx13new_allocatorI9SQLiteRowED2Ev @202
    _ZN9__gnu_cxx13new_allocatorIP6IONodeE10deallocateEPS2_j @203
    _ZN9__gnu_cxx13new_allocatorIP6IONodeE7destroyIS2_EEvPT_ @204
    _ZN9__gnu_cxx13new_allocatorIP6IONodeE8allocateEjPKv @205
    _ZN9__gnu_cxx13new_allocatorIP6IONodeE9constructIS2_IRKS2_EEEvPT_DpOT0_ @206
    _ZN9__gnu_cxx13new_allocatorIP6IONodeEC2ERKS3_ @207
    _ZN9__gnu_cxx13new_allocatorIP6IONodeEC2Ev @208
    _ZN9__gnu_cxx13new_allocatorIP6IONodeED2Ev @209
    _ZN9__gnu_cxx13new_allocatorIP9SQLiteRowE10deallocateEPS2_j @210
    _ZN9__gnu_cxx13new_allocatorIP9SQLiteRowE8allocateEjPKv @211
    _ZN9__gnu_cxx13new_allocatorIP9SQLiteRowEC2Ev @212
    _ZN9__gnu_cxx13new_allocatorIP9SQLiteRowED2Ev @213
    _ZN9__gnu_cxx13new_allocatorIPjE10deallocateEPS1_j @214
    _ZN9__gnu_cxx13new_allocatorIPjE8allocateEjPKv @215
    _ZN9__gnu_cxx13new_allocatorIPjEC2Ev @216
    _ZN9__gnu_cxx13new_allocatorIPjED2Ev @217
    _ZN9__gnu_cxx13new_allocatorISt13_Rb_tree_nodeISt4pairIKtSsEEE10deallocateEPS5_j @218
    _ZN9__gnu_cxx13new_allocatorISt13_Rb_tree_nodeISt4pairIKtSsEEE7destroyIS5_EEvPT_ @219
    _ZN9__gnu_cxx13new_allocatorISt13_Rb_tree_nodeISt4pairIKtSsEEE8allocateEjPKv @220
    _ZN9__gnu_cxx13new_allocatorISt13_Rb_tree_nodeISt4pairIKtSsEEE9constructIS5_IRKS4_EEEvPT_DpOT0_ @221
    _ZN9__gnu_cxx13new_allocatorISt13_Rb_tree_nodeISt4pairIKtSsEEE9constructIS5_IS2_ItSsEEEEvPT_DpOT0_ @222
    _ZN9__gnu_cxx13new_allocatorISt13_Rb_tree_nodeISt4pairIKtSsEEEC2ERKS6_ @223
    _ZN9__gnu_cxx13new_allocatorISt13_Rb_tree_nodeISt4pairIKtSsEEEC2Ev @224
    _ZN9__gnu_cxx13new_allocatorISt13_Rb_tree_nodeISt4pairIKtSsEEED2Ev @225
    _ZN9__gnu_cxx13new_allocatorISt4pairIKtSsEEC2ERKS4_ @226
    _ZN9__gnu_cxx13new_allocatorISt4pairIKtSsEEC2Ev @227
    _ZN9__gnu_cxx13new_allocatorISt4pairIKtSsEED2Ev @228
    _ZN9__gnu_cxx13new_allocatorIjE10deallocateEPjj @229
    _ZN9__gnu_cxx13new_allocatorIjE8allocateEjPKv @230
    _ZN9__gnu_cxx13new_allocatorIjE9constructIjIRKjEEEvPT_DpOT0_ @231
    _ZN9__gnu_cxx13new_allocatorIjE9constructIjIjEEEvPT_DpOT0_ @232
    _ZN9__gnu_cxx13new_allocatorIjEC2ERKS1_ @233
    _ZN9__gnu_cxx13new_allocatorIjEC2Ev @234
    _ZN9__gnu_cxx13new_allocatorIjED2Ev @235
    _ZN9__gnu_cxx14__alloc_traitsISaI10psudo_typeEE17_S_select_on_copyERKS2_ @236
    _ZN9__gnu_cxx14__alloc_traitsISaI10psudo_typeEE27_S_propagate_on_move_assignEv @237
    _ZN9__gnu_cxx14__alloc_traitsISaIP6IONodeEE27_S_propagate_on_move_assignEv @238
    _ZN9__gnu_cxx17__normal_iteratorIP10psudo_typeSt6vectorIS1_SaIS1_EEEC1ERKS2_ @239
    _ZN9__gnu_cxx17__normal_iteratorIP10psudo_typeSt6vectorIS1_SaIS1_EEEpLERKi @240
    _ZN9__gnu_cxx17__normal_iteratorIP10psudo_typeSt6vectorIS1_SaIS1_EEEppEv @241
    _ZN9__gnu_cxx17__normal_iteratorIPK10psudo_typeSt6vectorIS1_SaIS1_EEEC1ERKS3_ @242
    _ZN9__gnu_cxx17__normal_iteratorIPK10psudo_typeSt6vectorIS1_SaIS1_EEEppEv @243
    _ZN9__gnu_cxx17__normal_iteratorIPKcSsEC1ERKS2_ @244
    _ZN9__gnu_cxx17__normal_iteratorIPKcSsEppEi @245
    _ZN9__gnu_cxx17__normal_iteratorIPKcSsEppEv @246
    _ZN9__gnu_cxxeqIPKcSsEEbRKNS_17__normal_iteratorIT_T0_EES8_ @247
    _ZN9__gnu_cxxmiIP10psudo_typeSt6vectorIS1_SaIS1_EEEENS_17__normal_iteratorIT_T0_E15difference_typeERKS9_SC_ @248
    _ZN9__gnu_cxxneIP10psudo_typeSt6vectorIS1_SaIS1_EEEEbRKNS_17__normal_iteratorIT_T0_EESB_ @249
    _ZN9__gnu_cxxneIPK10psudo_typeSt6vectorIS1_SaIS1_EEEEbRKNS_17__normal_iteratorIT_T0_EESC_ @250
    _ZN9__gnu_cxxneIPKcSsEEbRKNS_17__normal_iteratorIT_T0_EES8_ @251
    _ZN9data_base10WriteValueERKSsS1_ @252
    _ZN9data_base11RefreshFileEv @253
    _ZN9data_base13CreateNewFileEPKc @254
    _ZN9data_base13TrimEndOfFileEv @255
    _ZN9data_base16LoadStringBufferEb @256
    _ZN9data_base18WriteValueAndFlushERKSs @257
    _ZN9data_base19RestoreFileContentsEv @258
    _ZN9data_base20CreateNewFile_staticEPKc @259
    _ZN9data_base21OpenFileForQuickWriteEPKc @260
    _ZN9data_base23OpenFileAndGetBinBufferEPc @261
    _ZN9data_base23WriteValueWithLineIndexERKSsS1_i @262
    _ZN9data_base24OpenBinFileForQuickWriteEPKc @263
    _ZN9data_base28CleanFileContentsOfArtifactsEv @264
    _ZN9data_base8LoadDataEPKcb @265
    _ZN9data_base8OpenFileEPKcb @266
    _ZN9data_base9CloseFileERKSs @267
    _ZN9data_base9FileClearEv @268
    _ZN9data_base9FlushDataEv @269
    _ZN9data_baseC1EPKcb @270
    _ZN9data_baseC2EPKcb @271
    _ZN9data_baseD1Ev @272
    _ZN9data_baseD2Ev @273
    _ZNK10SQLiteWrap10getResultsEv @274
    _ZNK10SQLiteWrap9getResultERSsj @275
    _ZNK10SQLiteWrap9getResultERbj @276
    _ZNK10SQLiteWrap9getResultERcj @277
    _ZNK10SQLiteWrap9getResultERdj @278
    _ZNK10SQLiteWrap9getResultERij @279
    _ZNK16BinarySearchTreeIjP6IONodeE10searchNodeEPNS2_8TreeNodeERKjRS1_ @280
    _ZNK16BinarySearchTreeIjP6IONodeE5emptyEv @281
    _ZNK16BinarySearchTreeIjP6IONodeE6searchERKjRS1_ @282
    _ZNK3sql12SQLException11getSQLStateEv @283
    _ZNK3sql12SQLException12getErrorCodeEv @284
    _ZNK3sql9SQLStringcvRKSsEv @285
    _ZNK3sql9SQLStringixEj @286
    _ZNK4utf812invalid_utf84whatEv @287
    _ZNK4utf813invalid_utf164whatEv @288
    _ZNK4utf815not_enough_room4whatEv @289
    _ZNK4utf818invalid_code_point4whatEv @290
    _ZNK5MySQL9getStatusEv @291
    _ZNK6IONode5GetIDEv @292
    _ZNK6IONode7GetPathEv @293
    _ZNK6IONode8GetCountEv @294
    _ZNK8DataBase11isConnectedEv @295
    _ZNK8DataBase9GetDBTypeEv @296
    _ZNK9SQLiteRow10GetFullRowEv @297
    _ZNK9SQLiteRow16GetResultFromColEj @298
    _ZNK9SQLiteRow9GetNumColEv @299
    _ZNK9__gnu_cxx13new_allocatorI10psudo_typeE8max_sizeEv @300
    _ZNK9__gnu_cxx13new_allocatorI9SQLiteRowE8max_sizeEv @301
    _ZNK9__gnu_cxx13new_allocatorIP6IONodeE8max_sizeEv @302
    _ZNK9__gnu_cxx13new_allocatorIP9SQLiteRowE8max_sizeEv @303
    _ZNK9__gnu_cxx13new_allocatorIPjE8max_sizeEv @304
    _ZNK9__gnu_cxx13new_allocatorISt13_Rb_tree_nodeISt4pairIKtSsEEE8max_sizeEv @305
    _ZNK9__gnu_cxx13new_allocatorIjE8max_sizeEv @306
    _ZNK9__gnu_cxx17__normal_iteratorIP10psudo_typeSt6vectorIS1_SaIS1_EEE4baseEv @307
    _ZNK9__gnu_cxx17__normal_iteratorIP10psudo_typeSt6vectorIS1_SaIS1_EEEdeEv @308
    _ZNK9__gnu_cxx17__normal_iteratorIPK10psudo_typeSt6vectorIS1_SaIS1_EEE4baseEv @309
    _ZNK9__gnu_cxx17__normal_iteratorIPK10psudo_typeSt6vectorIS1_SaIS1_EEEdeEv @310
    _ZNK9__gnu_cxx17__normal_iteratorIPKcSsE4baseEv @311
    _ZNK9__gnu_cxx17__normal_iteratorIPKcSsEdeEv @312
    _ZNK9data_base12GetLineCountEv @313
    _ZNK9data_base12GetLineIndexERKSsi @314
    _ZNK9data_base12GetStrBufferEv @315
    _ZNK9data_base12isOutputOpenEv @316
    _ZNK9data_base13GetLastOutputEv @317
    _ZNK9data_base14GetIntFromDataERKSs @318
    _ZNK9data_base14GetStrFromDataERKSs @319
    _ZNK9data_base15GetNumInstancesERKSs @320
    _ZNK9data_base16GetValueFromDataERKSs @321
    _ZNK9data_base16SearchTermExistsERKSs @322
    _ZNK9data_base22GetStrFromDataWithLineERKSsi @323
    _ZNK9data_base24GetStateOfInternalBufferEv @324
    _ZNK9data_base24GetValueFromDataWithLineERKSsi @325
    _ZNK9data_base7GetModeEv @326
    _ZNKSt10_Select1stISt4pairIKtSsEEclERKS2_ @327
    _ZNKSt10_Select1stISt4pairIKtSsEEclIS0_ItSsEEERNT_10first_typeERS6_ @328
    _ZNKSt11_Deque_baseI9SQLiteRowSaIS0_EE19_M_get_Tp_allocatorEv @329
    _ZNKSt11_Deque_baseI9SQLiteRowSaIS0_EE20_M_get_map_allocatorEv @330
    _ZNKSt11_Deque_baseIjSaIjEE19_M_get_Tp_allocatorEv @331
    _ZNKSt11_Deque_baseIjSaIjEE20_M_get_map_allocatorEv @332
    _ZNKSt12_Vector_baseI10psudo_typeSaIS0_EE19_M_get_Tp_allocatorEv @333
    _ZNKSt12_Vector_baseIP6IONodeSaIS1_EE19_M_get_Tp_allocatorEv @334
    _ZNKSt13move_iteratorIP10psudo_typeE4baseEv @335
    _ZNKSt13move_iteratorIP10psudo_typeEdeEv @336
    _ZNKSt13move_iteratorIPP6IONodeE4baseEv @337
    _ZNKSt15_Deque_iteratorI9SQLiteRowRKS0_PS1_EdeEv @338
    _ZNKSt15_Deque_iteratorI9SQLiteRowRS0_PS0_EdeEv @339
    _ZNKSt15_Deque_iteratorIjRKjPS0_EdeEv @340
    _ZNKSt15_Deque_iteratorIjRjPjEdeEv @341
    _ZNKSt16initializer_listISt4pairIKtSsEE3endEv @342
    _ZNKSt16initializer_listISt4pairIKtSsEE4sizeEv @343
    _ZNKSt16initializer_listISt4pairIKtSsEE5beginEv @344
    _ZNKSt17_Rb_tree_iteratorISt4pairIKtSsEEdeEv @345
    _ZNKSt17_Rb_tree_iteratorISt4pairIKtSsEEeqERKS3_ @346
    _ZNKSt23_Rb_tree_const_iteratorISt4pairIKtSsEE13_M_const_castEv @347
    _ZNKSt3mapItSsSt4lessItESaISt4pairIKtSsEEE8key_compEv @348
    _ZNKSt4fposIiEcvxEv @349
    _ZNKSt4lessItEclERKtS2_ @350
    _ZNKSt5dequeI9SQLiteRowSaIS0_EE3endEv @351
    _ZNKSt5dequeI9SQLiteRowSaIS0_EE4backEv @352
    _ZNKSt5dequeI9SQLiteRowSaIS0_EE4sizeEv @353
    _ZNKSt5dequeIjSaIjEE3endEv @354
    _ZNKSt5dequeIjSaIjEE4backEv @355
    _ZNKSt5dequeIjSaIjEE4sizeEv @356
    _ZNKSt5stackI9SQLiteRowSt5dequeIS0_SaIS0_EEE3topEv @357
    _ZNKSt5stackI9SQLiteRowSt5dequeIS0_SaIS0_EEE4sizeEv @358
    _ZNKSt5stackIjSt5dequeIjSaIjEEE3topEv @359
    _ZNKSt5stackIjSt5dequeIjSaIjEEE4sizeEv @360
    _ZNKSt6vectorI10psudo_typeSaIS0_EE12_M_check_lenEjPKc @361
    _ZNKSt6vectorI10psudo_typeSaIS0_EE3endEv @362
    _ZNKSt6vectorI10psudo_typeSaIS0_EE4sizeEv @363
    _ZNKSt6vectorI10psudo_typeSaIS0_EE5beginEv @364
    _ZNKSt6vectorI10psudo_typeSaIS0_EE8capacityEv @365
    _ZNKSt6vectorI10psudo_typeSaIS0_EE8max_sizeEv @366
    _ZNKSt6vectorI10psudo_typeSaIS0_EEixEj @367
    _ZNKSt6vectorIP6IONodeSaIS1_EE12_M_check_lenEjPKc @368
    _ZNKSt6vectorIP6IONodeSaIS1_EE4sizeEv @369
    _ZNKSt6vectorIP6IONodeSaIS1_EE8max_sizeEv @370
    _ZNKSt8_Rb_treeItSt4pairIKtSsESt10_Select1stIS2_ESt4lessItESaIS2_EE4sizeEv @371
    _ZNKSt8_Rb_treeItSt4pairIKtSsESt10_Select1stIS2_ESt4lessItESaIS2_EE8key_compEv @372
    _ZNSaI10psudo_typeEC1ERKS0_ @373
    _ZNSaI10psudo_typeEC2ERKS0_ @374
    _ZNSaI10psudo_typeEC2Ev @375
    _ZNSaI10psudo_typeED1Ev @376
    _ZNSaI10psudo_typeED2Ev @377
    _ZNSaI9SQLiteRowEC2ERKS0_ @378
    _ZNSaI9SQLiteRowEC2Ev @379
    _ZNSaI9SQLiteRowED2Ev @380
    _ZNSaIP6IONodeEC2ERKS1_ @381
    _ZNSaIP6IONodeEC2Ev @382
    _ZNSaIP6IONodeED2Ev @383
    _ZNSaIP9SQLiteRowEC1IS_EERKSaIT_E @384
    _ZNSaIP9SQLiteRowED1Ev @385
    _ZNSaIPjEC1IjEERKSaIT_E @386
    _ZNSaIPjED1Ev @387
    _ZNSaISt13_Rb_tree_nodeISt4pairIKtSsEEEC1IS2_EERKSaIT_E @388
    _ZNSaISt13_Rb_tree_nodeISt4pairIKtSsEEEC2ERKS4_ @389
    _ZNSaISt13_Rb_tree_nodeISt4pairIKtSsEEED1Ev @390
    _ZNSaISt13_Rb_tree_nodeISt4pairIKtSsEEED2Ev @391
    _ZNSaISt4pairIKtSsEEC1ERKS2_ @392
    _ZNSaISt4pairIKtSsEEC1Ev @393
    _ZNSaISt4pairIKtSsEED1Ev @394
    _ZNSaIjEC2ERKS_ @395
    _ZNSaIjEC2Ev @396
    _ZNSaIjED2Ev @397
    _ZNSt10_Iter_baseIN9__gnu_cxx17__normal_iteratorIP10psudo_typeSt6vectorIS2_SaIS2_EEEELb0EE7_S_baseES7_ @398
    _ZNSt10_Iter_baseIN9__gnu_cxx17__normal_iteratorIP10psudo_typeSt6vectorIS2_SaIS2_EEEELb1EE7_S_baseES7_ @399
    _ZNSt10_Iter_baseIP10psudo_typeLb0EE7_S_baseES1_ @400
    _ZNSt10_Iter_baseIPP6IONodeLb0EE7_S_baseES2_ @401
    _ZNSt10_Iter_baseIPP9SQLiteRowLb0EE7_S_baseES2_ @402
    _ZNSt10_Iter_baseIPPjLb0EE7_S_baseES1_ @403
    _ZNSt10_Iter_baseISt13move_iteratorIPP6IONodeELb1EE7_S_baseES4_ @404
    _ZNSt11_Deque_baseI9SQLiteRowSaIS0_EE11_Deque_implC1EOS1_ @405
    _ZNSt11_Deque_baseI9SQLiteRowSaIS0_EE11_Deque_implC1Ev @406
    _ZNSt11_Deque_baseI9SQLiteRowSaIS0_EE11_Deque_implD1Ev @407
    _ZNSt11_Deque_baseI9SQLiteRowSaIS0_EE15_M_allocate_mapEj @408
    _ZNSt11_Deque_baseI9SQLiteRowSaIS0_EE15_M_create_nodesEPPS0_S4_ @409
    _ZNSt11_Deque_baseI9SQLiteRowSaIS0_EE16_M_allocate_nodeEv @410
    _ZNSt11_Deque_baseI9SQLiteRowSaIS0_EE16_M_destroy_nodesEPPS0_S4_ @411
    _ZNSt11_Deque_baseI9SQLiteRowSaIS0_EE17_M_deallocate_mapEPPS0_j @412
    _ZNSt11_Deque_baseI9SQLiteRowSaIS0_EE17_M_initialize_mapEj @413
    _ZNSt11_Deque_baseI9SQLiteRowSaIS0_EE18_M_deallocate_nodeEPS0_ @414
    _ZNSt11_Deque_baseI9SQLiteRowSaIS0_EE19_M_get_Tp_allocatorEv @415
    _ZNSt11_Deque_baseI9SQLiteRowSaIS0_EEC2EOS2_ @416
    _ZNSt11_Deque_baseI9SQLiteRowSaIS0_EEC2Ev @417
    _ZNSt11_Deque_baseI9SQLiteRowSaIS0_EED2Ev @418
    _ZNSt11_Deque_baseIjSaIjEE11_Deque_implC1EOS0_ @419
    _ZNSt11_Deque_baseIjSaIjEE11_Deque_implC1Ev @420
    _ZNSt11_Deque_baseIjSaIjEE11_Deque_implD1Ev @421
    _ZNSt11_Deque_baseIjSaIjEE15_M_allocate_mapEj @422
    _ZNSt11_Deque_baseIjSaIjEE15_M_create_nodesEPPjS3_ @423
    _ZNSt11_Deque_baseIjSaIjEE16_M_allocate_nodeEv @424
    _ZNSt11_Deque_baseIjSaIjEE16_M_destroy_nodesEPPjS3_ @425
    _ZNSt11_Deque_baseIjSaIjEE17_M_deallocate_mapEPPjj @426
    _ZNSt11_Deque_baseIjSaIjEE17_M_initialize_mapEj @427
    _ZNSt11_Deque_baseIjSaIjEE18_M_deallocate_nodeEPj @428
    _ZNSt11_Deque_baseIjSaIjEE19_M_get_Tp_allocatorEv @429
    _ZNSt11_Deque_baseIjSaIjEEC2EOS1_ @430
    _ZNSt11_Deque_baseIjSaIjEEC2Ev @431
    _ZNSt11_Deque_baseIjSaIjEED2Ev @432
    _ZNSt11__copy_moveILb0ELb0ESt26random_access_iterator_tagE8__copy_mIP10psudo_typeS4_EET0_T_S6_S5_ @433
    _ZNSt11__copy_moveILb0ELb1ESt26random_access_iterator_tagE8__copy_mIP9SQLiteRowEEPT_PKS5_S8_S6_ @434
    _ZNSt11__copy_moveILb0ELb1ESt26random_access_iterator_tagE8__copy_mIPjEEPT_PKS4_S7_S5_ @435
    _ZNSt11__copy_moveILb1ELb1ESt26random_access_iterator_tagE8__copy_mIP6IONodeEEPT_PKS5_S8_S6_ @436
    _ZNSt11char_traitsIcE7compareEPKcS2_j @437
    _ZNSt12_Destroy_auxILb0EE9__destroyIP10psudo_typeEEvT_S4_ @438
    _ZNSt12_Destroy_auxILb0EE9__destroyIP9SQLiteRowEEvT_S4_ @439
    _ZNSt12_Destroy_auxILb1EE9__destroyIPP6IONodeEEvT_S5_ @440
    _ZNSt12_Vector_baseI10psudo_typeSaIS0_EE11_M_allocateEj @441
    _ZNSt12_Vector_baseI10psudo_typeSaIS0_EE12_Vector_impl12_M_swap_dataERS3_ @442
    _ZNSt12_Vector_baseI10psudo_typeSaIS0_EE12_Vector_implC1EOS1_ @443
    _ZNSt12_Vector_baseI10psudo_typeSaIS0_EE12_Vector_implC1ERKS1_ @444
    _ZNSt12_Vector_baseI10psudo_typeSaIS0_EE12_Vector_implC1Ev @445
    _ZNSt12_Vector_baseI10psudo_typeSaIS0_EE12_Vector_implD1Ev @446
    _ZNSt12_Vector_baseI10psudo_typeSaIS0_EE13_M_deallocateEPS0_j @447
    _ZNSt12_Vector_baseI10psudo_typeSaIS0_EE17_M_create_storageEj @448
    _ZNSt12_Vector_baseI10psudo_typeSaIS0_EE19_M_get_Tp_allocatorEv @449
    _ZNSt12_Vector_baseI10psudo_typeSaIS0_EEC2EOS2_ @450
    _ZNSt12_Vector_baseI10psudo_typeSaIS0_EEC2EjRKS1_ @451
    _ZNSt12_Vector_baseI10psudo_typeSaIS0_EEC2Ev @452
    _ZNSt12_Vector_baseI10psudo_typeSaIS0_EED2Ev @453
    _ZNSt12_Vector_baseIP6IONodeSaIS1_EE11_M_allocateEj @454
    _ZNSt12_Vector_baseIP6IONodeSaIS1_EE12_Vector_impl12_M_swap_dataERS4_ @455
    _ZNSt12_Vector_baseIP6IONodeSaIS1_EE12_Vector_implC1EOS2_ @456
    _ZNSt12_Vector_baseIP6IONodeSaIS1_EE12_Vector_implC1Ev @457
    _ZNSt12_Vector_baseIP6IONodeSaIS1_EE12_Vector_implD1Ev @458
    _ZNSt12_Vector_baseIP6IONodeSaIS1_EE13_M_deallocateEPS1_j @459
    _ZNSt12_Vector_baseIP6IONodeSaIS1_EE19_M_get_Tp_allocatorEv @460
    _ZNSt12_Vector_baseIP6IONodeSaIS1_EEC2EOS3_ @461
    _ZNSt12_Vector_baseIP6IONodeSaIS1_EEC2Ev @462
    _ZNSt12_Vector_baseIP6IONodeSaIS1_EED2Ev @463
    _ZNSt12__alloc_swapISaI9SQLiteRowELb1EE8_S_do_itERS1_S3_ @464
    _ZNSt12__alloc_swapISaIjELb1EE8_S_do_itERS0_S2_ @465
    _ZNSt13_Rb_tree_nodeISt4pairIKtSsEEC1IIRKS2_EEEDpOT_ @466
    _ZNSt13_Rb_tree_nodeISt4pairIKtSsEEC1IIS0_ItSsEEEEDpOT_ @467
    _ZNSt13_Rb_tree_nodeISt4pairIKtSsEED1Ev @468
    _ZNSt13move_iteratorIP10psudo_typeEC1ES1_ @469
    _ZNSt13move_iteratorIP10psudo_typeEppEv @470
    _ZNSt13move_iteratorIPP6IONodeEC1ES2_ @471
    _ZNSt15_Deque_iteratorI9SQLiteRowRKS0_PS1_E11_M_set_nodeEPPS0_ @472
    _ZNSt15_Deque_iteratorI9SQLiteRowRKS0_PS1_E14_S_buffer_sizeEv @473
    _ZNSt15_Deque_iteratorI9SQLiteRowRKS0_PS1_EC1ERKS_IS0_RS0_PS0_E @474
    _ZNSt15_Deque_iteratorI9SQLiteRowRKS0_PS1_EmmEv @475
    _ZNSt15_Deque_iteratorI9SQLiteRowRS0_PS0_E11_M_set_nodeEPS2_ @476
    _ZNSt15_Deque_iteratorI9SQLiteRowRS0_PS0_E14_S_buffer_sizeEv @477
    _ZNSt15_Deque_iteratorI9SQLiteRowRS0_PS0_EC1ERKS3_ @478
    _ZNSt15_Deque_iteratorI9SQLiteRowRS0_PS0_EC1Ev @479
    _ZNSt15_Deque_iteratorI9SQLiteRowRS0_PS0_EmmEv @480
    _ZNSt15_Deque_iteratorIjRKjPS0_E11_M_set_nodeEPPj @481
    _ZNSt15_Deque_iteratorIjRKjPS0_E14_S_buffer_sizeEv @482
    _ZNSt15_Deque_iteratorIjRKjPS0_EC1ERKS_IjRjPjE @483
    _ZNSt15_Deque_iteratorIjRKjPS0_EmmEv @484
    _ZNSt15_Deque_iteratorIjRjPjE11_M_set_nodeEPS1_ @485
    _ZNSt15_Deque_iteratorIjRjPjE14_S_buffer_sizeEv @486
    _ZNSt15_Deque_iteratorIjRjPjEC1ERKS2_ @487
    _ZNSt15_Deque_iteratorIjRjPjEC1Ev @488
    _ZNSt15_Deque_iteratorIjRjPjEmmEv @489
    _ZNSt16allocator_traitsISaI10psudo_typeEE10_S_destroyIS0_EENSt9enable_ifIXsrNS2_16__destroy_helperIT_EE5valueEvE4typeERS1_PS6_ @490
    _ZNSt16allocator_traitsISaI10psudo_typeEE11_S_max_sizeIKS1_EENSt9enable_ifIXsrNS2_16__maxsize_helperIT_EE5valueEjE4typeERS7_ @491
    _ZNSt16allocator_traitsISaI10psudo_typeEE12_S_constructIS0_IRKS0_EEENSt9enable_ifIXsrNS2_18__construct_helperIT_IDpT0_EEE5valueEvE4typeERS1_PS8_DpOS9_ @492
    _ZNSt16allocator_traitsISaI10psudo_typeEE37select_on_container_copy_constructionERKS1_ @493
    _ZNSt16allocator_traitsISaI10psudo_typeEE7destroyIS0_EEvRS1_PT_ @494
    _ZNSt16allocator_traitsISaI10psudo_typeEE8max_sizeERKS1_ @495
    _ZNSt16allocator_traitsISaI10psudo_typeEE9_S_selectIKS1_EENSt9enable_ifIXntsrNS2_15__select_helperIT_EE5valueES7_E4typeERS7_ @496
    _ZNSt16allocator_traitsISaI10psudo_typeEE9constructIS0_IRKS0_EEEvRS1_PT_DpOT0_ @497
    _ZNSt16allocator_traitsISaIP6IONodeEE10_S_destroyIS1_EENSt9enable_ifIXsrNS3_16__destroy_helperIT_EE5valueEvE4typeERS2_PS7_ @498
    _ZNSt16allocator_traitsISaIP6IONodeEE11_S_max_sizeIKS2_EENSt9enable_ifIXsrNS3_16__maxsize_helperIT_EE5valueEjE4typeERS8_ @499
    _ZNSt16allocator_traitsISaIP6IONodeEE12_S_constructIS1_IRKS1_EEENSt9enable_ifIXsrNS3_18__construct_helperIT_IDpT0_EEE5valueEvE4typeERS2_PS9_DpOSA_ @500
    _ZNSt16allocator_traitsISaIP6IONodeEE7destroyIS1_EEvRS2_PT_ @501
    _ZNSt16allocator_traitsISaIP6IONodeEE8max_sizeERKS2_ @502
    _ZNSt16allocator_traitsISaIP6IONodeEE9constructIS1_IRKS1_EEEvRS2_PT_DpOT0_ @503
    _ZNSt17_Rb_tree_iteratorISt4pairIKtSsEEC1EPSt13_Rb_tree_nodeIS2_E @504
    _ZNSt17_Rb_tree_iteratorISt4pairIKtSsEEmmEv @505
    _ZNSt20__copy_move_backwardILb0ELb1ESt26random_access_iterator_tagE13__copy_move_bIP9SQLiteRowEEPT_PKS5_S8_S6_ @506
    _ZNSt20__copy_move_backwardILb0ELb1ESt26random_access_iterator_tagE13__copy_move_bIPjEEPT_PKS4_S7_S5_ @507
    _ZNSt20__copy_move_backwardILb1ELb0ESt26random_access_iterator_tagE13__copy_move_bIP10psudo_typeS4_EET0_T_S6_S5_ @508
    _ZNSt20__uninitialized_copyILb0EE13__uninit_copyIN9__gnu_cxx17__normal_iteratorIP10psudo_typeSt6vectorIS4_SaIS4_EEEES5_EET0_T_SB_SA_ @509
    _ZNSt20__uninitialized_copyILb0EE13__uninit_copyIN9__gnu_cxx17__normal_iteratorIPK10psudo_typeSt6vectorIS4_SaIS4_EEEEPS4_EET0_T_SD_SC_ @510
    _ZNSt20__uninitialized_copyILb0EE13__uninit_copyISt13move_iteratorIP10psudo_typeES4_EET0_T_S7_S6_ @511
    _ZNSt20__uninitialized_copyILb1EE13__uninit_copyISt13move_iteratorIPP6IONodeES5_EET0_T_S8_S7_ @512
    _ZNSt20back_insert_iteratorISsEC1ERSs @513
    _ZNSt20back_insert_iteratorISsEaSEOc @514
    _ZNSt20back_insert_iteratorISsEaSERKc @515
    _ZNSt20back_insert_iteratorISsEdeEv @516
    _ZNSt20back_insert_iteratorISsEppEi @517
    _ZNSt23_Rb_tree_const_iteratorISt4pairIKtSsEEC1ERKSt17_Rb_tree_iteratorIS2_E @518
    _ZNSt23_Rb_tree_const_iteratorISt4pairIKtSsEEmmEv @519
    _ZNSt23_Rb_tree_const_iteratorISt4pairIKtSsEEppEv @520
    _ZNSt3mapItSsSt4lessItESaISt4pairIKtSsEEE11lower_boundERS3_ @521
    _ZNSt3mapItSsSt4lessItESaISt4pairIKtSsEEE3endEv @522
    _ZNSt3mapItSsSt4lessItESaISt4pairIKtSsEEE6insertIS2_ItSsEvEESt17_Rb_tree_iteratorIS4_ESt23_Rb_tree_const_iteratorIS4_EOT_ @523
    _ZNSt3mapItSsSt4lessItESaISt4pairIKtSsEEEC1ESt16initializer_listIS4_ERKS1_RKS5_ @524
    _ZNSt3mapItSsSt4lessItESaISt4pairIKtSsEEED1Ev @525
    _ZNSt3mapItSsSt4lessItESaISt4pairIKtSsEEEixEOt @526
    _ZNSt4fposIiEC1Ev @527
    _ZNSt4fposIiEC1Ex @528
    _ZNSt4pairIKtSsEC1ERKS1_ @529
    _ZNSt4pairIKtSsEC1I14StatementTypesRA10_KcvEEOT_OT0_ @530
    _ZNSt4pairIKtSsEC1I14StatementTypesRA11_KcvEEOT_OT0_ @531
    _ZNSt4pairIKtSsEC1I14StatementTypesRA12_KcvEEOT_OT0_ @532
    _ZNSt4pairIKtSsEC1I14StatementTypesRA13_KcvEEOT_OT0_ @533
    _ZNSt4pairIKtSsEC1I14StatementTypesRA15_KcvEEOT_OT0_ @534
    _ZNSt4pairIKtSsEC1I14StatementTypesRA17_KcvEEOT_OT0_ @535
    _ZNSt4pairIKtSsEC1I14StatementTypesRA18_KcvEEOT_OT0_ @536
    _ZNSt4pairIKtSsEC1I14StatementTypesRA5_KcvEEOT_OT0_ @537
    _ZNSt4pairIKtSsEC1I14StatementTypesRA6_KcvEEOT_OT0_ @538
    _ZNSt4pairIKtSsEC1I14StatementTypesRA7_KcvEEOT_OT0_ @539
    _ZNSt4pairIKtSsEC1I14StatementTypesRA8_KcvEEOT_OT0_ @540
    _ZNSt4pairIKtSsEC1I14StatementTypesRA9_KcvEEOT_OT0_ @541
    _ZNSt4pairIKtSsEC1ItSsvEEOS_IT_T0_E @542
    _ZNSt4pairIKtSsED1Ev @543
    _ZNSt4pairISt17_Rb_tree_iteratorIS_IKtSsEEbEC1IRS3_bvEEOT_OT0_ @544
    _ZNSt4pairISt17_Rb_tree_iteratorIS_IKtSsEEbEC1IS3_bvEEOT_OT0_ @545
    _ZNSt4pairItSsEC1ItSsvEEOT_OT0_ @546
    _ZNSt4pairItSsED1Ev @547
    _ZNSt5dequeI9SQLiteRowSaIS0_EE14_S_buffer_sizeEv @548
    _ZNSt5dequeI9SQLiteRowSaIS0_EE15_M_destroy_dataESt15_Deque_iteratorIS0_RS0_PS0_ES6_RKS1_ @549
    _ZNSt5dequeI9SQLiteRowSaIS0_EE15_M_erase_at_endESt15_Deque_iteratorIS0_RS0_PS0_E @550
    _ZNSt5dequeI9SQLiteRowSaIS0_EE15_M_pop_back_auxEv @551
    _ZNSt5dequeI9SQLiteRowSaIS0_EE16_M_push_back_auxIIRKS0_EEEvDpOT_ @552
    _ZNSt5dequeI9SQLiteRowSaIS0_EE17_M_reallocate_mapEjb @553
    _ZNSt5dequeI9SQLiteRowSaIS0_EE19_M_destroy_data_auxESt15_Deque_iteratorIS0_RS0_PS0_ES6_ @554
    _ZNSt5dequeI9SQLiteRowSaIS0_EE22_M_reserve_map_at_backEj @555
    _ZNSt5dequeI9SQLiteRowSaIS0_EE3endEv @556
    _ZNSt5dequeI9SQLiteRowSaIS0_EE4backEv @557
    _ZNSt5dequeI9SQLiteRowSaIS0_EE4swapERS2_ @558
    _ZNSt5dequeI9SQLiteRowSaIS0_EE5beginEv @559
    _ZNSt5dequeI9SQLiteRowSaIS0_EE5clearEv @560
    _ZNSt5dequeI9SQLiteRowSaIS0_EE8pop_backEv @561
    _ZNSt5dequeI9SQLiteRowSaIS0_EE9push_backERKS0_ @562
    _ZNSt5dequeI9SQLiteRowSaIS0_EEC1EOS2_ @563
    _ZNSt5dequeI9SQLiteRowSaIS0_EEC1Ev @564
    _ZNSt5dequeI9SQLiteRowSaIS0_EED1Ev @565
    _ZNSt5dequeI9SQLiteRowSaIS0_EEaSEOS2_ @566
    _ZNSt5dequeIjSaIjEE12emplace_backIIjEEEvDpOT_ @567
    _ZNSt5dequeIjSaIjEE15_M_destroy_dataESt15_Deque_iteratorIjRjPjES5_RKS0_ @568
    _ZNSt5dequeIjSaIjEE15_M_erase_at_endESt15_Deque_iteratorIjRjPjE @569
    _ZNSt5dequeIjSaIjEE16_M_push_back_auxIIRKjEEEvDpOT_ @570
    _ZNSt5dequeIjSaIjEE16_M_push_back_auxIIjEEEvDpOT_ @571
    _ZNSt5dequeIjSaIjEE17_M_reallocate_mapEjb @572
    _ZNSt5dequeIjSaIjEE22_M_reserve_map_at_backEj @573
    _ZNSt5dequeIjSaIjEE3endEv @574
    _ZNSt5dequeIjSaIjEE4backEv @575
    _ZNSt5dequeIjSaIjEE4swapERS1_ @576
    _ZNSt5dequeIjSaIjEE5beginEv @577
    _ZNSt5dequeIjSaIjEE5clearEv @578
    _ZNSt5dequeIjSaIjEE9push_backEOj @579
    _ZNSt5dequeIjSaIjEE9push_backERKj @580
    _ZNSt5dequeIjSaIjEEC1EOS1_ @581
    _ZNSt5dequeIjSaIjEEC1Ev @582
    _ZNSt5dequeIjSaIjEED1Ev @583
    _ZNSt5dequeIjSaIjEEaSEOS1_ @584
    _ZNSt5stackI9SQLiteRowSt5dequeIS0_SaIS0_EEE3popEv @585
    _ZNSt5stackI9SQLiteRowSt5dequeIS0_SaIS0_EEE3topEv @586
    _ZNSt5stackI9SQLiteRowSt5dequeIS0_SaIS0_EEE4pushERKS0_ @587
    _ZNSt5stackI9SQLiteRowSt5dequeIS0_SaIS0_EEEC1EOS3_ @588
    _ZNSt5stackI9SQLiteRowSt5dequeIS0_SaIS0_EEED1Ev @589
    _ZNSt5stackI9SQLiteRowSt5dequeIS0_SaIS0_EEEaSEOS4_ @590
    _ZNSt5stackIjSt5dequeIjSaIjEEE3topEv @591
    _ZNSt5stackIjSt5dequeIjSaIjEEE4pushEOj @592
    _ZNSt5stackIjSt5dequeIjSaIjEEE4pushERKj @593
    _ZNSt5stackIjSt5dequeIjSaIjEEEC1EOS2_ @594
    _ZNSt5stackIjSt5dequeIjSaIjEEED1Ev @595
    _ZNSt5stackIjSt5dequeIjSaIjEEEaSEOS3_ @596
    _ZNSt6vectorI10psudo_typeSaIS0_EE14_M_move_assignEOS2_St17integral_constantIbLb1EE @597
    _ZNSt6vectorI10psudo_typeSaIS0_EE15_M_erase_at_endEPS0_ @598
    _ZNSt6vectorI10psudo_typeSaIS0_EE15_M_range_insertIN9__gnu_cxx17__normal_iteratorIPS0_S2_EEEEvS7_T_S8_St20forward_iterator_tag @599
    _ZNSt6vectorI10psudo_typeSaIS0_EE18_M_insert_dispatchIN9__gnu_cxx17__normal_iteratorIPS0_S2_EEEEvS7_T_S8_St12__false_type @600
    _ZNSt6vectorI10psudo_typeSaIS0_EE19_M_emplace_back_auxIIRKS0_EEEvDpOT_ @601
    _ZNSt6vectorI10psudo_typeSaIS0_EE20_M_allocate_and_copyISt13move_iteratorIPS0_EEES5_jT_S7_ @602
    _ZNSt6vectorI10psudo_typeSaIS0_EE3endEv @603
    _ZNSt6vectorI10psudo_typeSaIS0_EE5beginEv @604
    _ZNSt6vectorI10psudo_typeSaIS0_EE5clearEv @605
    _ZNSt6vectorI10psudo_typeSaIS0_EE6insertIN9__gnu_cxx17__normal_iteratorIPS0_S2_EEEEvS7_T_S8_ @606
    _ZNSt6vectorI10psudo_typeSaIS0_EE7reserveEj @607
    _ZNSt6vectorI10psudo_typeSaIS0_EE9push_backERKS0_ @608
    _ZNSt6vectorI10psudo_typeSaIS0_EEC1EOS2_ @609
    _ZNSt6vectorI10psudo_typeSaIS0_EEC1ERKS2_ @610
    _ZNSt6vectorI10psudo_typeSaIS0_EEC1Ev @611
    _ZNSt6vectorI10psudo_typeSaIS0_EED1Ev @612
    _ZNSt6vectorI10psudo_typeSaIS0_EEaSEOS2_ @613
    _ZNSt6vectorIP6IONodeSaIS1_EE14_M_move_assignEOS3_St17integral_constantIbLb1EE @614
    _ZNSt6vectorIP6IONodeSaIS1_EE19_M_emplace_back_auxIIRKS1_EEEvDpOT_ @615
    _ZNSt6vectorIP6IONodeSaIS1_EE9push_backERKS1_ @616
    _ZNSt6vectorIP6IONodeSaIS1_EEC1EOS3_ @617
    _ZNSt6vectorIP6IONodeSaIS1_EEC1Ev @618
    _ZNSt6vectorIP6IONodeSaIS1_EED1Ev @619
    _ZNSt6vectorIP6IONodeSaIS1_EEaSEOS3_ @620
    _ZNSt6vectorIP6IONodeSaIS1_EEixEj @621
    _ZNSt8_Rb_treeItSt4pairIKtSsESt10_Select1stIS2_ESt4lessItESaIS2_EE10_M_insert_IRKS2_EESt17_Rb_tree_iteratorIS2_EPKSt18_Rb_tree_node_baseSG_OT_ @622
    _ZNSt8_Rb_treeItSt4pairIKtSsESt10_Select1stIS2_ESt4lessItESaIS2_EE10_M_insert_IS0_ItSsEEESt17_Rb_tree_iteratorIS2_EPKSt18_Rb_tree_node_baseSF_OT_ @623
    _ZNSt8_Rb_treeItSt4pairIKtSsESt10_Select1stIS2_ESt4lessItESaIS2_EE11_M_get_nodeEv @624
    _ZNSt8_Rb_treeItSt4pairIKtSsESt10_Select1stIS2_ESt4lessItESaIS2_EE11_M_leftmostEv @625
    _ZNSt8_Rb_treeItSt4pairIKtSsESt10_Select1stIS2_ESt4lessItESaIS2_EE11_M_put_nodeEPSt13_Rb_tree_nodeIS2_E @626
    _ZNSt8_Rb_treeItSt4pairIKtSsESt10_Select1stIS2_ESt4lessItESaIS2_EE11lower_boundERS1_ @627
    _ZNSt8_Rb_treeItSt4pairIKtSsESt10_Select1stIS2_ESt4lessItESaIS2_EE12_M_rightmostEv @628
    _ZNSt8_Rb_treeItSt4pairIKtSsESt10_Select1stIS2_ESt4lessItESaIS2_EE13_Rb_tree_implIS6_Lb1EE13_M_initializeEv @629
    _ZNSt8_Rb_treeItSt4pairIKtSsESt10_Select1stIS2_ESt4lessItESaIS2_EE13_Rb_tree_implIS6_Lb1EEC1ERKS6_OSaISt13_Rb_tree_nodeIS2_EE @630
    _ZNSt8_Rb_treeItSt4pairIKtSsESt10_Select1stIS2_ESt4lessItESaIS2_EE13_Rb_tree_implIS6_Lb1EED1Ev @631
    _ZNSt8_Rb_treeItSt4pairIKtSsESt10_Select1stIS2_ESt4lessItESaIS2_EE14_M_create_nodeIIRKS2_EEEPSt13_Rb_tree_nodeIS2_EDpOT_ @632
    _ZNSt8_Rb_treeItSt4pairIKtSsESt10_Select1stIS2_ESt4lessItESaIS2_EE14_M_create_nodeIIS0_ItSsEEEEPSt13_Rb_tree_nodeIS2_EDpOT_ @633
    _ZNSt8_Rb_treeItSt4pairIKtSsESt10_Select1stIS2_ESt4lessItESaIS2_EE14_M_lower_boundEPSt13_Rb_tree_nodeIS2_ESB_RS1_ @634
    _ZNSt8_Rb_treeItSt4pairIKtSsESt10_Select1stIS2_ESt4lessItESaIS2_EE15_M_destroy_nodeEPSt13_Rb_tree_nodeIS2_E @635
    _ZNSt8_Rb_treeItSt4pairIKtSsESt10_Select1stIS2_ESt4lessItESaIS2_EE16_M_insert_uniqueIPKS2_EEvT_SC_ @636
    _ZNSt8_Rb_treeItSt4pairIKtSsESt10_Select1stIS2_ESt4lessItESaIS2_EE16_M_insert_uniqueIRKS2_EES0_ISt17_Rb_tree_iteratorIS2_EbEOT_ @637
    _ZNSt8_Rb_treeItSt4pairIKtSsESt10_Select1stIS2_ESt4lessItESaIS2_EE16_M_insert_uniqueIS0_ItSsEEES0_ISt17_Rb_tree_iteratorIS2_EbEOT_ @638
    _ZNSt8_Rb_treeItSt4pairIKtSsESt10_Select1stIS2_ESt4lessItESaIS2_EE17_M_insert_unique_IRKS2_EESt17_Rb_tree_iteratorIS2_ESt23_Rb_tree_const_iteratorIS2_EOT_ @639
    _ZNSt8_Rb_treeItSt4pairIKtSsESt10_Select1stIS2_ESt4lessItESaIS2_EE17_M_insert_unique_IS0_ItSsEEESt17_Rb_tree_iteratorIS2_ESt23_Rb_tree_const_iteratorIS2_EOT_ @640
    _ZNSt8_Rb_treeItSt4pairIKtSsESt10_Select1stIS2_ESt4lessItESaIS2_EE21_M_get_Node_allocatorEv @641
    _ZNSt8_Rb_treeItSt4pairIKtSsESt10_Select1stIS2_ESt4lessItESaIS2_EE3endEv @642
    _ZNSt8_Rb_treeItSt4pairIKtSsESt10_Select1stIS2_ESt4lessItESaIS2_EE5beginEv @643
    _ZNSt8_Rb_treeItSt4pairIKtSsESt10_Select1stIS2_ESt4lessItESaIS2_EE6_M_endEv @644
    _ZNSt8_Rb_treeItSt4pairIKtSsESt10_Select1stIS2_ESt4lessItESaIS2_EE6_S_keyEPKSt13_Rb_tree_nodeIS2_E @645
    _ZNSt8_Rb_treeItSt4pairIKtSsESt10_Select1stIS2_ESt4lessItESaIS2_EE6_S_keyEPKSt18_Rb_tree_node_base @646
    _ZNSt8_Rb_treeItSt4pairIKtSsESt10_Select1stIS2_ESt4lessItESaIS2_EE7_S_leftEPSt18_Rb_tree_node_base @647
    _ZNSt8_Rb_treeItSt4pairIKtSsESt10_Select1stIS2_ESt4lessItESaIS2_EE8_M_beginEv @648
    _ZNSt8_Rb_treeItSt4pairIKtSsESt10_Select1stIS2_ESt4lessItESaIS2_EE8_M_eraseEPSt13_Rb_tree_nodeIS2_E @649
    _ZNSt8_Rb_treeItSt4pairIKtSsESt10_Select1stIS2_ESt4lessItESaIS2_EE8_S_rightEPKSt18_Rb_tree_node_base @650
    _ZNSt8_Rb_treeItSt4pairIKtSsESt10_Select1stIS2_ESt4lessItESaIS2_EE8_S_rightEPSt18_Rb_tree_node_base @651
    _ZNSt8_Rb_treeItSt4pairIKtSsESt10_Select1stIS2_ESt4lessItESaIS2_EE8_S_valueEPKSt13_Rb_tree_nodeIS2_E @652
    _ZNSt8_Rb_treeItSt4pairIKtSsESt10_Select1stIS2_ESt4lessItESaIS2_EE8_S_valueEPKSt18_Rb_tree_node_base @653
    _ZNSt8_Rb_treeItSt4pairIKtSsESt10_Select1stIS2_ESt4lessItESaIS2_EEC1ERKS6_RKS7_ @654
    _ZNSt8_Rb_treeItSt4pairIKtSsESt10_Select1stIS2_ESt4lessItESaIS2_EED1Ev @655
    _ZNSt8iteratorISt19output_iterator_tagvvvvEC2Ev @656
    _ZNSt9exceptionC2Ev @657
    _ZSt10_ConstructI10psudo_typeIRKS0_EEvPT_DpOT0_ @658
    _ZSt10_ConstructI10psudo_typeIRS0_EEvPT_DpOT0_ @659
    _ZSt10_ConstructI10psudo_typeIS0_EEvPT_DpOT0_ @660
    _ZSt10__distanceIN9__gnu_cxx17__normal_iteratorIP10psudo_typeSt6vectorIS2_SaIS2_EEEEENSt15iterator_traitsIT_E15difference_typeES9_S9_St26random_access_iterator_tag @661
    _ZSt11__addressofI10psudo_typeEPT_RS1_ @662
    _ZSt11__addressofI9SQLiteRowEPT_RS1_ @663
    _ZSt12__miter_baseIN9__gnu_cxx17__normal_iteratorIP10psudo_typeSt6vectorIS2_SaIS2_EEEEENSt11_Miter_baseIT_E13iterator_typeES9_ @664
    _ZSt12__miter_baseIP10psudo_typeENSt11_Miter_baseIT_E13iterator_typeES3_ @665
    _ZSt12__miter_baseIPP9SQLiteRowENSt11_Miter_baseIT_E13iterator_typeES4_ @666
    _ZSt12__miter_baseIPPjENSt11_Miter_baseIT_E13iterator_typeES3_ @667
    _ZSt12__miter_baseISt13move_iteratorIPP6IONodeEENSt11_Miter_baseIT_E13iterator_typeES6_ @668
    _ZSt12__niter_baseIN9__gnu_cxx17__normal_iteratorIP10psudo_typeSt6vectorIS2_SaIS2_EEEEENSt11_Niter_baseIT_E13iterator_typeES9_ @669
    _ZSt12__niter_baseIP10psudo_typeENSt11_Niter_baseIT_E13iterator_typeES3_ @670
    _ZSt12__niter_baseIPP6IONodeENSt11_Niter_baseIT_E13iterator_typeES4_ @671
    _ZSt12__niter_baseIPP9SQLiteRowENSt11_Niter_baseIT_E13iterator_typeES4_ @672
    _ZSt12__niter_baseIPPjENSt11_Niter_baseIT_E13iterator_typeES3_ @673
    _ZSt13__copy_move_aILb0EP10psudo_typeS1_ET1_T0_S3_S2_ @674
    _ZSt13__copy_move_aILb0EPP9SQLiteRowS2_ET1_T0_S4_S3_ @675
    _ZSt13__copy_move_aILb0EPPjS1_ET1_T0_S3_S2_ @676
    _ZSt13__copy_move_aILb1EPP6IONodeS2_ET1_T0_S4_S3_ @677
    _ZSt13back_inserterISsESt20back_insert_iteratorIT_ERS1_ @678
    _ZSt13copy_backwardIPP9SQLiteRowS2_ET0_T_S4_S3_ @679
    _ZSt13copy_backwardIPPjS1_ET0_T_S3_S2_ @680
    _ZSt13move_backwardIP10psudo_typeS1_ET0_T_S3_S2_ @681
    _ZSt14__copy_move_a2ILb0EN9__gnu_cxx17__normal_iteratorIP10psudo_typeSt6vectorIS2_SaIS2_EEEES7_ET1_T0_S9_S8_ @682
    _ZSt14__copy_move_a2ILb0EPP9SQLiteRowS2_ET1_T0_S4_S3_ @683
    _ZSt14__copy_move_a2ILb0EPPjS1_ET1_T0_S3_S2_ @684
    _ZSt14__copy_move_a2ILb1EPP6IONodeS2_ET1_T0_S4_S3_ @685
    _ZSt15__alloc_on_moveISaI10psudo_typeEEvRT_S3_ @686
    _ZSt15__alloc_on_moveISaIP6IONodeEEvRT_S4_ @687
    _ZSt16__deque_buf_sizej @688
    _ZSt18__do_alloc_on_moveISaI10psudo_typeEEvRT_S3_St17integral_constantIbLb0EE @689
    _ZSt18__do_alloc_on_moveISaIP6IONodeEEvRT_S4_St17integral_constantIbLb0EE @690
    _ZSt18make_move_iteratorIP10psudo_typeESt13move_iteratorIT_ES3_ @691
    _ZSt18uninitialized_copyIN9__gnu_cxx17__normal_iteratorIP10psudo_typeSt6vectorIS2_SaIS2_EEEES3_ET0_T_S9_S8_ @692
    _ZSt18uninitialized_copyIN9__gnu_cxx17__normal_iteratorIPK10psudo_typeSt6vectorIS2_SaIS2_EEEEPS2_ET0_T_SB_SA_ @693
    _ZSt18uninitialized_copyISt13move_iteratorIP10psudo_typeES2_ET0_T_S5_S4_ @694
    _ZSt18uninitialized_copyISt13move_iteratorIPP6IONodeES3_ET0_T_S6_S5_ @695
    _ZSt19__iterator_categoryIN9__gnu_cxx17__normal_iteratorIP10psudo_typeSt6vectorIS2_SaIS2_EEEEENSt15iterator_traitsIT_E17iterator_categoryERKS9_ @696
    _ZSt22__copy_move_backward_aILb0EPP9SQLiteRowS2_ET1_T0_S4_S3_ @697
    _ZSt22__copy_move_backward_aILb0EPPjS1_ET1_T0_S3_S2_ @698
    _ZSt22__copy_move_backward_aILb1EP10psudo_typeS1_ET1_T0_S3_S2_ @699
    _ZSt22__uninitialized_copy_aIN9__gnu_cxx17__normal_iteratorIP10psudo_typeSt6vectorIS2_SaIS2_EEEES3_S2_ET0_T_S9_S8_RSaIT1_E @700
    _ZSt22__uninitialized_copy_aIN9__gnu_cxx17__normal_iteratorIPK10psudo_typeSt6vectorIS2_SaIS2_EEEEPS2_S2_ET0_T_SB_SA_RSaIT1_E @701
    _ZSt22__uninitialized_copy_aISt13move_iteratorIP10psudo_typeES2_S1_ET0_T_S5_S4_RSaIT1_E @702
    _ZSt22__uninitialized_copy_aISt13move_iteratorIPP6IONodeES3_S2_ET0_T_S6_S5_RSaIT1_E @703
    _ZSt22__uninitialized_move_aIP10psudo_typeS1_SaIS0_EET0_T_S4_S3_RT1_ @704
    _ZSt23__copy_move_backward_a2ILb0EPP9SQLiteRowS2_ET1_T0_S4_S3_ @705
    _ZSt23__copy_move_backward_a2ILb0EPPjS1_ET1_T0_S3_S2_ @706
    _ZSt23__copy_move_backward_a2ILb1EP10psudo_typeS1_ET1_T0_S3_S2_ @707
    _ZSt32__make_move_if_noexcept_iteratorIP10psudo_typeSt13move_iteratorIS1_EET0_T_ @708
    _ZSt32__make_move_if_noexcept_iteratorIPP6IONodeSt13move_iteratorIS2_EET0_T_ @709
    _ZSt34__uninitialized_move_if_noexcept_aIP10psudo_typeS1_SaIS0_EET0_T_S4_S3_RT1_ @710
    _ZSt34__uninitialized_move_if_noexcept_aIPP6IONodeS2_SaIS1_EET0_T_S5_S4_RT1_ @711
    _ZSt3maxIjERKT_S2_S2_ @712
    _ZSt4copyIN9__gnu_cxx17__normal_iteratorIP10psudo_typeSt6vectorIS2_SaIS2_EEEES7_ET0_T_S9_S8_ @713
    _ZSt4copyIPP9SQLiteRowS2_ET0_T_S4_S3_ @714
    _ZSt4copyIPPjS1_ET0_T_S3_S2_ @715
    _ZSt4copyISt13move_iteratorIPP6IONodeES3_ET0_T_S6_S5_ @716
    _ZSt4moveIR10psudo_typeEONSt16remove_referenceIT_E4typeEOS3_ @717
    _ZSt4moveIRP10psudo_typeEONSt16remove_referenceIT_E4typeEOS4_ @718
    _ZSt4moveIRPP6IONodeEONSt16remove_referenceIT_E4typeEOS5_ @719
    _ZSt4moveIRPP9SQLiteRowEONSt16remove_referenceIT_E4typeEOS5_ @720
    _ZSt4moveIRPPjEONSt16remove_referenceIT_E4typeEOS4_ @721
    _ZSt4moveIRSaI10psudo_typeEEONSt16remove_referenceIT_E4typeEOS4_ @722
    _ZSt4moveIRSaI9SQLiteRowEEONSt16remove_referenceIT_E4typeEOS4_ @723
    _ZSt4moveIRSaIP6IONodeEEONSt16remove_referenceIT_E4typeEOS5_ @724
    _ZSt4moveIRSaISt13_Rb_tree_nodeISt4pairIKtSsEEEEONSt16remove_referenceIT_E4typeEOS8_ @725
    _ZSt4moveIRSaIjEEONSt16remove_referenceIT_E4typeEOS3_ @726
    _ZSt4moveIRSsEONSt16remove_referenceIT_E4typeEOS2_ @727
    _ZSt4moveIRSt15_Deque_iteratorI9SQLiteRowRS1_PS1_EEONSt16remove_referenceIT_E4typeEOS7_ @728
    _ZSt4moveIRSt15_Deque_iteratorIjRjPjEEONSt16remove_referenceIT_E4typeEOS6_ @729
    _ZSt4moveIRSt5dequeI9SQLiteRowSaIS1_EEEONSt16remove_referenceIT_E4typeEOS6_ @730
    _ZSt4moveIRSt5dequeIjSaIjEEEONSt16remove_referenceIT_E4typeEOS5_ @731
    _ZSt4moveIRSt6vectorI10psudo_typeSaIS1_EEEONSt16remove_referenceIT_E4typeEOS6_ @732
    _ZSt4moveIRSt6vectorIP6IONodeSaIS2_EEEONSt16remove_referenceIT_E4typeEOS7_ @733
    _ZSt4moveIRcEONSt16remove_referenceIT_E4typeEOS2_ @734
    _ZSt4moveIRjEONSt16remove_referenceIT_E4typeEOS2_ @735
    _ZSt4moveIRtEONSt16remove_referenceIT_E4typeEOS2_ @736
    _ZSt4swapIP10psudo_typeEvRT_S3_ @737
    _ZSt4swapIPP6IONodeEvRT_S4_ @738
    _ZSt4swapIPP9SQLiteRowEvRT_S4_ @739
    _ZSt4swapIPPjEvRT_S3_ @740
    _ZSt4swapISt15_Deque_iteratorI9SQLiteRowRS1_PS1_EEvRT_S6_ @741
    _ZSt4swapISt15_Deque_iteratorIjRjPjEEvRT_S5_ @742
    _ZSt4swapIjEvRT_S1_ @743
    _ZSt7advanceIN9__gnu_cxx17__normal_iteratorIP10psudo_typeSt6vectorIS2_SaIS2_EEEEjEvRT_T0_ @744
    _ZSt7forwardI10psudo_typeEOT_RNSt16remove_referenceIS1_E4typeE @745
    _ZSt7forwardI14StatementTypesEOT_RNSt16remove_referenceIS1_E4typeE @746
    _ZSt7forwardIR10psudo_typeEOT_RNSt16remove_referenceIS2_E4typeE @747
    _ZSt7forwardIRA10_KcEOT_RNSt16remove_referenceIS3_E4typeE @748
    _ZSt7forwardIRA11_KcEOT_RNSt16remove_referenceIS3_E4typeE @749
    _ZSt7forwardIRA12_KcEOT_RNSt16remove_referenceIS3_E4typeE @750
    _ZSt7forwardIRA13_KcEOT_RNSt16remove_referenceIS3_E4typeE @751
    _ZSt7forwardIRA15_KcEOT_RNSt16remove_referenceIS3_E4typeE @752
    _ZSt7forwardIRA17_KcEOT_RNSt16remove_referenceIS3_E4typeE @753
    _ZSt7forwardIRA18_KcEOT_RNSt16remove_referenceIS3_E4typeE @754
    _ZSt7forwardIRA5_KcEOT_RNSt16remove_referenceIS3_E4typeE @755
    _ZSt7forwardIRA6_KcEOT_RNSt16remove_referenceIS3_E4typeE @756
    _ZSt7forwardIRA7_KcEOT_RNSt16remove_referenceIS3_E4typeE @757
    _ZSt7forwardIRA8_KcEOT_RNSt16remove_referenceIS3_E4typeE @758
    _ZSt7forwardIRA9_KcEOT_RNSt16remove_referenceIS3_E4typeE @759
    _ZSt7forwardIRK10psudo_typeEOT_RNSt16remove_referenceIS3_E4typeE @760
    _ZSt7forwardIRK9SQLiteRowEOT_RNSt16remove_referenceIS3_E4typeE @761
    _ZSt7forwardIRKP6IONodeEOT_RNSt16remove_referenceIS4_E4typeE @762
    _ZSt7forwardIRKSt4pairIKtSsEEOT_RNSt16remove_referenceIS5_E4typeE @763
    _ZSt7forwardIRKjEOT_RNSt16remove_referenceIS2_E4typeE @764
    _ZSt7forwardIRSt17_Rb_tree_iteratorISt4pairIKtSsEEEOT_RNSt16remove_referenceIS6_E4typeE @765
    _ZSt7forwardISsEOT_RNSt16remove_referenceIS0_E4typeE @766
    _ZSt7forwardISt17_Rb_tree_iteratorISt4pairIKtSsEEEOT_RNSt16remove_referenceIS5_E4typeE @767
    _ZSt7forwardISt4pairItSsEEOT_RNSt16remove_referenceIS2_E4typeE @768
    _ZSt7forwardIbEOT_RNSt16remove_referenceIS0_E4typeE @769
    _ZSt7forwardIjEOT_RNSt16remove_referenceIS0_E4typeE @770
    _ZSt7forwardItEOT_RNSt16remove_referenceIS0_E4typeE @771
    _ZSt8_DestroyI10psudo_typeEvPT_ @772
    _ZSt8_DestroyI9SQLiteRowEvPT_ @773
    _ZSt8_DestroyIP10psudo_typeEvT_S2_ @774
    _ZSt8_DestroyIP10psudo_typeS0_EvT_S2_RSaIT0_E @775
    _ZSt8_DestroyIP9SQLiteRowEvT_S2_ @776
    _ZSt8_DestroyIP9SQLiteRowS0_EvT_S2_RSaIT0_E @777
    _ZSt8_DestroyIPP6IONodeEvT_S3_ @778
    _ZSt8_DestroyIPP6IONodeS1_EvT_S3_RSaIT0_E @779
    _ZSt8distanceIN9__gnu_cxx17__normal_iteratorIP10psudo_typeSt6vectorIS2_SaIS2_EEEEENSt15iterator_traitsIT_E15difference_typeES9_S9_ @780
    _ZSt9__advanceIN9__gnu_cxx17__normal_iteratorIP10psudo_typeSt6vectorIS2_SaIS2_EEEEiEvRT_T0_St26random_access_iterator_tag @781
    _ZSt9make_pairItSsESt4pairINSt17__decay_and_stripIT_E6__typeENS1_IT0_E6__typeEEOS2_OS5_ @782
    _ZSteqIP10psudo_typeEbRKSt13move_iteratorIT_ES6_ @783
    _ZSteqIcEN9__gnu_cxx11__enable_ifIXsrSt9__is_charIT_E7__valueEbE6__typeERKSbIS3_St11char_traitsIS3_ESaIS3_EESC_ @784
    _ZSteqIcSt11char_traitsIcESaIcEEbRKSbIT_T0_T1_EPKS3_ @785
    _ZStmiI9SQLiteRowRS0_PS0_ENSt15_Deque_iteratorIT_T0_T1_E15difference_typeERKS7_SA_ @786
    _ZStmiIjRjPjENSt15_Deque_iteratorIT_T0_T1_E15difference_typeERKS6_S9_ @787
    _ZStneIP10psudo_typeEbRKSt13move_iteratorIT_ES6_ @788
    _ZStneIcSt11char_traitsIcESaIcEEbRKSbIT_T0_T1_EPKS3_ @789
    _ZStorSt13_Ios_OpenmodeS_ @790
    _ZStplIcSt11char_traitsIcESaIcEESbIT_T0_T1_EOS6_PKS3_ @791
    _ZStplIcSt11char_traitsIcESaIcEESbIT_T0_T1_EOS6_RKS6_ @792
    _ZStplIcSt11char_traitsIcESaIcEESbIT_T0_T1_EPKS3_OS6_ @793
    _ZStplIcSt11char_traitsIcESaIcEESbIT_T0_T1_ERKS6_OS6_ @794
    _ZStplIcSt11char_traitsIcESaIcEESbIT_T0_T1_ERKS6_PKS3_ @795
    _ZStplIcSt11char_traitsIcESaIcEESbIT_T0_T1_ERKS6_S8_ @796
    _ZStplIcSt11char_traitsIcESaIcEESbIT_T0_T1_ES3_RKS6_ @797
    _ZTIN3sql12SQLExceptionE @798 DATA
    _ZTIN4utf812invalid_utf8E @799 DATA
    _ZTIN4utf813invalid_utf16E @800 DATA
    _ZTIN4utf815not_enough_roomE @801 DATA
    _ZTIN4utf818invalid_code_pointE @802 DATA
    _ZTIN4utf89exceptionE @803 DATA
    _ZTISt13runtime_error @804 DATA
    _ZTISt9exception @805 DATA
    _ZTSN3sql12SQLExceptionE @806 DATA
    _ZTSN4utf812invalid_utf8E @807 DATA
    _ZTSN4utf813invalid_utf16E @808 DATA
    _ZTSN4utf815not_enough_roomE @809 DATA
    _ZTSN4utf818invalid_code_pointE @810 DATA
    _ZTSN4utf89exceptionE @811 DATA
    _ZTSSt13runtime_error @812 DATA
    _ZTSSt9exception @813 DATA
    _ZTVN4utf812invalid_utf8E @814 DATA
    _ZTVN4utf813invalid_utf16E @815 DATA
    _ZTVN4utf815not_enough_roomE @816 DATA
    _ZTVN4utf818invalid_code_pointE @817 DATA
    _ZTVN4utf89exceptionE @818 DATA
    _ZZN4utf815replace_invalidIN9__gnu_cxx17__normal_iteratorIPKcSsEESt20back_insert_iteratorISsEEET0_T_S9_S8_E18replacement_marker @819 DATA
    _ZdlPvS_ @820
    _ZnwjPv @821
    _get_output_format @822
    sprintf @823
