EXPORTS
    _ZN14NetworkManager10hasNetNodeEj @1
    _ZN14NetworkManager11RecvDataIntERiji @2
    _ZN14NetworkManager11RecvDataStrERSsjji @3
    _ZN14NetworkManager11SendDataIntERKiji @4
    _ZN14NetworkManager11SendDataStrERKSsji @5
    _ZN14NetworkManager12CreateServerEjb @6
    _ZN14NetworkManager12RecvDataCharERcji @7
    _ZN14NetworkManager12SendDataCharEcji @8
    _ZN14NetworkManager13PingUDPClientEjij @9
    _ZN14NetworkManager13RecvUDPSignalEjRj @10
    _ZN14NetworkManager13SendUDPSignalEjRKSs @11
    _ZN14NetworkManager14CloseUDPClientEji @12
    _ZN14NetworkManager14RecvDataDoubleERdji @13
    _ZN14NetworkManager14SendDataDoubleERKdji @14
    _ZN14NetworkManager15AcceptTCPClientEj @15
    _ZN14NetworkManager15AcceptUDPClientEj @16
    _ZN14NetworkManager15RecvDataBooleanERbji @17
    _ZN14NetworkManager15SendDataBooleanERKbji @18
    _ZN14NetworkManager16GetTCPClientInfoEjj @19
    _ZN14NetworkManager16GetUDPClientInfoEji @20
    _ZN14NetworkManager20GetMaxNumUDPChannelsEv @21
    _ZN14NetworkManager22CreateClientConnectionERKSsjb @22
    _ZN14NetworkManager6SetMTUEj @23
    _ZN14NetworkManager8RecvDataEPvjji @24
    _ZN14NetworkManager8SendDataEPvjji @25
    _ZN14NetworkManagerC1EP4Game @26
    _ZN14NetworkManagerC2EP4Game @27
    _ZN14NetworkManagerD1Ev @28
    _ZN14NetworkManagerD2Ev @29
    _ZN16BinarySearchTreeIj9TCPClientE10insertNodeERPNS1_8TreeNodeERKjRKS0_ @30
    _ZN16BinarySearchTreeIj9TCPClientE10removeNodeERPNS1_8TreeNodeERKj @31
    _ZN16BinarySearchTreeIj9TCPClientE11getContentsEv @32
    _ZN16BinarySearchTreeIj9TCPClientE12rem_swapNodeERPNS1_8TreeNodeES4_ @33
    _ZN16BinarySearchTreeIj9TCPClientE6insertERKjRKS0_ @34
    _ZN16BinarySearchTreeIj9TCPClientE6removeERKj @35
    _ZN16BinarySearchTreeIj9TCPClientE8TreeNodeC1ERKjRKS0_PS2_S7_ @36
    _ZN16BinarySearchTreeIj9TCPClientE8TreeNodeD1Ev @37
    _ZN16BinarySearchTreeIj9TCPClientE8dumpNodeEPNS1_8TreeNodeERSt6vectorIS0_SaIS0_EE @38
    _ZN16BinarySearchTreeIj9TCPClientE8freeTreeEPNS1_8TreeNodeE @39
    _ZN16BinarySearchTreeIj9TCPClientE9getValRefEPNS1_8TreeNodeERKj @40
    _ZN16BinarySearchTreeIj9TCPClientEC1Ev @41
    _ZN16BinarySearchTreeIj9TCPClientED1Ev @42
    _ZN16BinarySearchTreeIj9TCPClientEixERKj @43
    _ZN16BinarySearchTreeIjP7NetNodeE10insertNodeERPNS2_8TreeNodeERKjRKS1_ @44
    _ZN16BinarySearchTreeIjP7NetNodeE11getContentsEv @45
    _ZN16BinarySearchTreeIjP7NetNodeE6insertERKjRKS1_ @46
    _ZN16BinarySearchTreeIjP7NetNodeE8TreeNodeC1ERKjRKS1_PS3_S8_ @47
    _ZN16BinarySearchTreeIjP7NetNodeE8dumpNodeEPNS2_8TreeNodeERSt6vectorIS1_SaIS1_EE @48
    _ZN16BinarySearchTreeIjP7NetNodeE8freeTreeEPNS2_8TreeNodeE @49
    _ZN16BinarySearchTreeIjP7NetNodeE9getValRefEPNS2_8TreeNodeERKj @50
    _ZN16BinarySearchTreeIjP7NetNodeEC1Ev @51
    _ZN16BinarySearchTreeIjP7NetNodeED1Ev @52
    _ZN16BinarySearchTreeIjP7NetNodeEixERKj @53
    _ZN5RangeC1Ejj @54
    _ZN7NetNode12GetTCPSocketEi @55
    _ZN7NetNode12GetUDPSocketEv @56
    _ZN7NetNode15AcceptTCPClientEv @57
    _ZN7NetNode16GetTCPClientInfoEj @58
    _ZN7NetNode17RegisterUDPClientERK9IPaddressi @59
    _ZN7NetNode18GenerateUDPChannelEv @60
    _ZN7NetNode19UnRegisterTCPClientEi @61
    _ZN7NetNode19UnRegisterUDPClientEi @62
    _ZN7NetNode5hasIDEj @63
    _ZN7NetNodeC1EjRKSsjbi @64
    _ZN7NetNodeC1Ejjbi @65
    _ZN7NetNodeC2EjRKSsjbi @66
    _ZN7NetNodeC2Ejjbi @67
    _ZN7NetNodeD1Ev @68
    _ZN7NetNodeD2Ev @69
    _ZN9TCPClientC1EOS_ @70
    _ZN9TCPClientC1ERKS_ @71
    _ZN9TCPClientC1Ev @72
    _ZN9TCPClientD1Ev @73
    _ZN9TCPClientaSERKS_ @74
    _ZN9UDPClientC1Ev @75
    _ZN9__gnu_cxx13new_allocatorI9TCPClientE10deallocateEPS1_j @76
    _ZN9__gnu_cxx13new_allocatorI9TCPClientE7destroyIS1_EEvPT_ @77
    _ZN9__gnu_cxx13new_allocatorI9TCPClientE8allocateEjPKv @78
    _ZN9__gnu_cxx13new_allocatorI9TCPClientE9constructIS1_IRKS1_EEEvPT_DpOT0_ @79
    _ZN9__gnu_cxx13new_allocatorI9TCPClientEC2Ev @80
    _ZN9__gnu_cxx13new_allocatorI9TCPClientED2Ev @81
    _ZN9__gnu_cxx13new_allocatorIP7NetNodeE10deallocateEPS2_j @82
    _ZN9__gnu_cxx13new_allocatorIP7NetNodeE7destroyIS2_EEvPT_ @83
    _ZN9__gnu_cxx13new_allocatorIP7NetNodeE8allocateEjPKv @84
    _ZN9__gnu_cxx13new_allocatorIP7NetNodeE9constructIS2_IRKS2_EEEvPT_DpOT0_ @85
    _ZN9__gnu_cxx13new_allocatorIP7NetNodeEC2Ev @86
    _ZN9__gnu_cxx13new_allocatorIP7NetNodeED2Ev @87
    _ZN9__gnu_cxx13new_allocatorISt10_List_nodeI9UDPClientEE10deallocateEPS3_j @88
    _ZN9__gnu_cxx13new_allocatorISt10_List_nodeI9UDPClientEE7destroyIS3_EEvPT_ @89
    _ZN9__gnu_cxx13new_allocatorISt10_List_nodeI9UDPClientEEC2Ev @90
    _ZN9__gnu_cxx13new_allocatorISt10_List_nodeI9UDPClientEED2Ev @91
    _ZNK16BinarySearchTreeIj9TCPClientE10searchNodeEPNS1_8TreeNodeERKjRS0_ @92
    _ZNK16BinarySearchTreeIj9TCPClientE4sizeEv @93
    _ZNK16BinarySearchTreeIj9TCPClientE5emptyEv @94
    _ZNK16BinarySearchTreeIj9TCPClientE6searchERKjRS0_ @95
    _ZNK16BinarySearchTreeIjP7NetNodeE10searchNodeEPNS2_8TreeNodeERKjRS1_ @96
    _ZNK16BinarySearchTreeIjP7NetNodeE6searchERKjRS1_ @97
    _ZNK7NetNode10GetAddressEv @98
    _ZNK7NetNode14GetClientCountEv @99
    _ZNK7NetNode16GetUDPClientInfoEi @100
    _ZNK7NetNode16isUDPChannelFullEi @101
    _ZNK7NetNode5isBadEv @102
    _ZNK7NetNode5isUDPEv @103
    _ZNK7NetNode7GetPortEv @104
    _ZNK7NetNode8isServerEv @105
    _ZNK7NetNode9GetNodeIDEv @106
    _ZNK9__gnu_cxx13new_allocatorI9TCPClientE8max_sizeEv @107
    _ZNK9__gnu_cxx13new_allocatorIP7NetNodeE8max_sizeEv @108
    _ZNKSt12_Vector_baseI9TCPClientSaIS0_EE19_M_get_Tp_allocatorEv @109
    _ZNKSt12_Vector_baseIP7NetNodeSaIS1_EE19_M_get_Tp_allocatorEv @110
    _ZNKSt13move_iteratorIP9TCPClientE4baseEv @111
    _ZNKSt13move_iteratorIP9TCPClientEdeEv @112
    _ZNKSt13move_iteratorIPP7NetNodeE4baseEv @113
    _ZNKSt20_List_const_iteratorI9UDPClientEdeEv @114
    _ZNKSt20_List_const_iteratorI9UDPClientEneERKS1_ @115
    _ZNKSt20_List_const_iteratorI9UDPClientEptEv @116
    _ZNKSt4listI9UDPClientSaIS0_EE3endEv @117
    _ZNKSt4listI9UDPClientSaIS0_EE4sizeEv @118
    _ZNKSt4listI9UDPClientSaIS0_EE5beginEv @119
    _ZNKSt6vectorI9TCPClientSaIS0_EE12_M_check_lenEjPKc @120
    _ZNKSt6vectorI9TCPClientSaIS0_EE4sizeEv @121
    _ZNKSt6vectorI9TCPClientSaIS0_EE8capacityEv @122
    _ZNKSt6vectorI9TCPClientSaIS0_EE8max_sizeEv @123
    _ZNKSt6vectorIP7NetNodeSaIS1_EE12_M_check_lenEjPKc @124
    _ZNKSt6vectorIP7NetNodeSaIS1_EE4sizeEv @125
    _ZNKSt6vectorIP7NetNodeSaIS1_EE8capacityEv @126
    _ZNKSt6vectorIP7NetNodeSaIS1_EE8max_sizeEv @127
    _ZNSaI9TCPClientEC2Ev @128
    _ZNSaI9TCPClientED2Ev @129
    _ZNSaIP7NetNodeEC2Ev @130
    _ZNSaIP7NetNodeED2Ev @131
    _ZNSaISt10_List_nodeI9UDPClientEEC2Ev @132
    _ZNSaISt10_List_nodeI9UDPClientEED2Ev @133
    _ZNSt10_Iter_baseIPP7NetNodeLb0EE7_S_baseES2_ @134
    _ZNSt10_Iter_baseISt13move_iteratorIPP7NetNodeELb1EE7_S_baseES4_ @135
    _ZNSt10_List_baseI9UDPClientSaIS0_EE10_List_implC1Ev @136
    _ZNSt10_List_baseI9UDPClientSaIS0_EE10_List_implD1Ev @137
    _ZNSt10_List_baseI9UDPClientSaIS0_EE11_M_put_nodeEPSt10_List_nodeIS0_E @138
    _ZNSt10_List_baseI9UDPClientSaIS0_EE21_M_get_Node_allocatorEv @139
    _ZNSt10_List_baseI9UDPClientSaIS0_EE7_M_initEv @140
    _ZNSt10_List_baseI9UDPClientSaIS0_EE8_M_clearEv @141
    _ZNSt10_List_baseI9UDPClientSaIS0_EEC2Ev @142
    _ZNSt10_List_baseI9UDPClientSaIS0_EED2Ev @143
    _ZNSt11__copy_moveILb1ELb1ESt26random_access_iterator_tagE8__copy_mIP7NetNodeEEPT_PKS5_S8_S6_ @144
    _ZNSt12_Destroy_auxILb0EE9__destroyIP9TCPClientEEvT_S4_ @145
    _ZNSt12_Destroy_auxILb1EE9__destroyIPP7NetNodeEEvT_S5_ @146
    _ZNSt12_Vector_baseI9TCPClientSaIS0_EE11_M_allocateEj @147
    _ZNSt12_Vector_baseI9TCPClientSaIS0_EE12_Vector_implC1Ev @148
    _ZNSt12_Vector_baseI9TCPClientSaIS0_EE12_Vector_implD1Ev @149
    _ZNSt12_Vector_baseI9TCPClientSaIS0_EE13_M_deallocateEPS0_j @150
    _ZNSt12_Vector_baseI9TCPClientSaIS0_EE19_M_get_Tp_allocatorEv @151
    _ZNSt12_Vector_baseI9TCPClientSaIS0_EEC2Ev @152
    _ZNSt12_Vector_baseI9TCPClientSaIS0_EED2Ev @153
    _ZNSt12_Vector_baseIP7NetNodeSaIS1_EE11_M_allocateEj @154
    _ZNSt12_Vector_baseIP7NetNodeSaIS1_EE12_Vector_implC1Ev @155
    _ZNSt12_Vector_baseIP7NetNodeSaIS1_EE12_Vector_implD1Ev @156
    _ZNSt12_Vector_baseIP7NetNodeSaIS1_EE13_M_deallocateEPS1_j @157
    _ZNSt12_Vector_baseIP7NetNodeSaIS1_EE19_M_get_Tp_allocatorEv @158
    _ZNSt12_Vector_baseIP7NetNodeSaIS1_EEC2Ev @159
    _ZNSt12_Vector_baseIP7NetNodeSaIS1_EED2Ev @160
    _ZNSt13move_iteratorIP9TCPClientEC1ES1_ @161
    _ZNSt13move_iteratorIP9TCPClientEppEv @162
    _ZNSt13move_iteratorIPP7NetNodeEC1ES2_ @163
    _ZNSt16allocator_traitsISaI9TCPClientEE10_S_destroyIS0_EENSt9enable_ifIXsrNS2_16__destroy_helperIT_EE5valueEvE4typeERS1_PS6_ @164
    _ZNSt16allocator_traitsISaI9TCPClientEE11_S_max_sizeIKS1_EENSt9enable_ifIXsrNS2_16__maxsize_helperIT_EE5valueEjE4typeERS7_ @165
    _ZNSt16allocator_traitsISaI9TCPClientEE12_S_constructIS0_IRKS0_EEENSt9enable_ifIXsrNS2_18__construct_helperIT_IDpT0_EEE5valueEvE4typeERS1_PS8_DpOS9_ @166
    _ZNSt16allocator_traitsISaI9TCPClientEE7destroyIS0_EEvRS1_PT_ @167
    _ZNSt16allocator_traitsISaI9TCPClientEE8max_sizeERKS1_ @168
    _ZNSt16allocator_traitsISaI9TCPClientEE9constructIS0_IRKS0_EEEvRS1_PT_DpOT0_ @169
    _ZNSt16allocator_traitsISaIP7NetNodeEE10_S_destroyIS1_EENSt9enable_ifIXsrNS3_16__destroy_helperIT_EE5valueEvE4typeERS2_PS7_ @170
    _ZNSt16allocator_traitsISaIP7NetNodeEE11_S_max_sizeIKS2_EENSt9enable_ifIXsrNS3_16__maxsize_helperIT_EE5valueEjE4typeERS8_ @171
    _ZNSt16allocator_traitsISaIP7NetNodeEE12_S_constructIS1_IRKS1_EEENSt9enable_ifIXsrNS3_18__construct_helperIT_IDpT0_EEE5valueEvE4typeERS2_PS9_DpOSA_ @172
    _ZNSt16allocator_traitsISaIP7NetNodeEE7destroyIS1_EEvRS2_PT_ @173
    _ZNSt16allocator_traitsISaIP7NetNodeEE8max_sizeERKS2_ @174
    _ZNSt16allocator_traitsISaIP7NetNodeEE9constructIS1_IRKS1_EEEvRS2_PT_DpOT0_ @175
    _ZNSt20_List_const_iteratorI9UDPClientEC1EPKNSt8__detail15_List_node_baseE @176
    _ZNSt20_List_const_iteratorI9UDPClientEppEi @177
    _ZNSt20__uninitialized_copyILb0EE13__uninit_copyISt13move_iteratorIP9TCPClientES4_EET0_T_S7_S6_ @178
    _ZNSt20__uninitialized_copyILb1EE13__uninit_copyISt13move_iteratorIPP7NetNodeES5_EET0_T_S8_S7_ @179
    _ZNSt4listI9UDPClientSaIS0_EEC1Ev @180
    _ZNSt4listI9UDPClientSaIS0_EED1Ev @181
    _ZNSt6vectorI9TCPClientSaIS0_EE19_M_emplace_back_auxIIRKS0_EEEvDpOT_ @182
    _ZNSt6vectorI9TCPClientSaIS0_EE20_M_allocate_and_copyISt13move_iteratorIPS0_EEES5_jT_S7_ @183
    _ZNSt6vectorI9TCPClientSaIS0_EE7reserveEj @184
    _ZNSt6vectorI9TCPClientSaIS0_EE9push_backERKS0_ @185
    _ZNSt6vectorI9TCPClientSaIS0_EEC1Ev @186
    _ZNSt6vectorI9TCPClientSaIS0_EED1Ev @187
    _ZNSt6vectorI9TCPClientSaIS0_EEixEj @188
    _ZNSt6vectorIP7NetNodeSaIS1_EE19_M_emplace_back_auxIIRKS1_EEEvDpOT_ @189
    _ZNSt6vectorIP7NetNodeSaIS1_EE20_M_allocate_and_copyISt13move_iteratorIPS1_EEES6_jT_S8_ @190
    _ZNSt6vectorIP7NetNodeSaIS1_EE7reserveEj @191
    _ZNSt6vectorIP7NetNodeSaIS1_EE9push_backERKS1_ @192
    _ZNSt6vectorIP7NetNodeSaIS1_EEC1Ev @193
    _ZNSt6vectorIP7NetNodeSaIS1_EED1Ev @194
    _ZNSt6vectorIP7NetNodeSaIS1_EEixEj @195
    _ZSt10_ConstructI9TCPClientIS0_EEvPT_DpOT0_ @196
    _ZSt11__addressofI9TCPClientEPT_RS1_ @197
    _ZSt11__addressofIK9UDPClientEPT_RS2_ @198
    _ZSt12__miter_baseISt13move_iteratorIPP7NetNodeEENSt11_Miter_baseIT_E13iterator_typeES6_ @199
    _ZSt12__niter_baseIPP7NetNodeENSt11_Niter_baseIT_E13iterator_typeES4_ @200
    _ZSt13__copy_move_aILb1EPP7NetNodeS2_ET1_T0_S4_S3_ @201
    _ZSt14__copy_move_a2ILb1EPP7NetNodeS2_ET1_T0_S4_S3_ @202
    _ZSt18uninitialized_copyISt13move_iteratorIP9TCPClientES2_ET0_T_S5_S4_ @203
    _ZSt18uninitialized_copyISt13move_iteratorIPP7NetNodeES3_ET0_T_S6_S5_ @204
    _ZSt22__uninitialized_copy_aISt13move_iteratorIP9TCPClientES2_S1_ET0_T_S5_S4_RSaIT1_E @205
    _ZSt22__uninitialized_copy_aISt13move_iteratorIPP7NetNodeES3_S2_ET0_T_S6_S5_RSaIT1_E @206
    _ZSt32__make_move_if_noexcept_iteratorIP9TCPClientSt13move_iteratorIS1_EET0_T_ @207
    _ZSt32__make_move_if_noexcept_iteratorIPP7NetNodeSt13move_iteratorIS2_EET0_T_ @208
    _ZSt34__uninitialized_move_if_noexcept_aIP9TCPClientS1_SaIS0_EET0_T_S4_S3_RT1_ @209
    _ZSt34__uninitialized_move_if_noexcept_aIPP7NetNodeS2_SaIS1_EET0_T_S5_S4_RT1_ @210
    _ZSt3maxIjERKT_S2_S2_ @211
    _ZSt4copyISt13move_iteratorIPP7NetNodeES3_ET0_T_S6_S5_ @212
    _ZSt4moveIR9TCPClientEONSt16remove_referenceIT_E4typeEOS3_ @213
    _ZSt7forwardI9TCPClientEOT_RNSt16remove_referenceIS1_E4typeE @214
    _ZSt7forwardIRK9TCPClientEOT_RNSt16remove_referenceIS3_E4typeE @215
    _ZSt7forwardIRKP7NetNodeEOT_RNSt16remove_referenceIS4_E4typeE @216
    _ZSt8_DestroyI9TCPClientEvPT_ @217
    _ZSt8_DestroyIP9TCPClientEvT_S2_ @218
    _ZSt8_DestroyIP9TCPClientS0_EvT_S2_RSaIT0_E @219
    _ZSt8_DestroyIPP7NetNodeEvT_S3_ @220
    _ZSt8_DestroyIPP7NetNodeS1_EvT_S3_RSaIT0_E @221
    _ZSteqIP9TCPClientEbRKSt13move_iteratorIT_ES6_ @222
    _ZSteqIcSt11char_traitsIcESaIcEEbRKSbIT_T0_T1_EPKS3_ @223
    _ZStneIP9TCPClientEbRKSt13move_iteratorIT_ES6_ @224
    _ZdlPvS_ @225
    _ZnwjPv @226
    _get_output_format @227
