EXPORTS
    AcceptTCPClient @1
    AcceptUDPClient @2
    CloseUDPClient @3
    CreateClientConnection @4
    CreateClientConnectionIP @5
    CreateServer @6
    GetMaxNumUDPChannels @7
    PingUDPClient @8
    RecvData @9
    RecvDataChar @10
    RecvDataDouble @11
    RecvDataInt @12
    RecvDataStr @13
    SendData @14
    SendDataChar @15
    SendDataDouble @16
    SendDataInt @17
    SendDataStr @18
    SendUDPSignal @19
    SetMTU @20
    _Z16GetTCPClientInfoPvjj @21
    _Z16GetUDPClientInfoPvji @22
    _ZN14NetworkManager10hasNetNodeEj @23
    _ZN14NetworkManager10initNetSysEv @24
    _ZN14NetworkManager11RecvDataIntERiji @25
    _ZN14NetworkManager11RecvDataStrERSsjji @26
    _ZN14NetworkManager11SendDataIntERKiji @27
    _ZN14NetworkManager11SendDataStrERKSsji @28
    _ZN14NetworkManager12CreateServerEjb @29
    _ZN14NetworkManager12RecvDataCharERcji @30
    _ZN14NetworkManager12SendDataCharEcji @31
    _ZN14NetworkManager13PingUDPClientEjij @32
    _ZN14NetworkManager13RecvUDPSignalEjRj @33
    _ZN14NetworkManager13SendUDPSignalEjRKSs @34
    _ZN14NetworkManager14CloseUDPClientEji @35
    _ZN14NetworkManager14RecvDataDoubleERdji @36
    _ZN14NetworkManager14SendDataDoubleERKdji @37
    _ZN14NetworkManager15AcceptTCPClientEj @38
    _ZN14NetworkManager15AcceptUDPClientEj @39
    _ZN14NetworkManager15RecvDataBooleanERbji @40
    _ZN14NetworkManager15SendDataBooleanERKbji @41
    _ZN14NetworkManager16GetTCPClientInfoEjj @42
    _ZN14NetworkManager16GetUDPClientInfoEji @43
    _ZN14NetworkManager20GetMaxNumUDPChannelsEv @44
    _ZN14NetworkManager22CreateClientConnectionERKSsjb @45
    _ZN14NetworkManager24CreateClientConnectionIPERKSsjb @46
    _ZN14NetworkManager6SetMTUEj @47
    _ZN14NetworkManager8RecvDataEPvjji @48
    _ZN14NetworkManager8SendDataEPvjji @49
    _ZN14NetworkManagerC1EP12ThreadSystem @50
    _ZN14NetworkManagerC2EP12ThreadSystem @51
    _ZN14NetworkManagerD1Ev @52
    _ZN14NetworkManagerD2Ev @53
    _ZN16BinarySearchTreeIi9UDPClientE6insertERKiRKS0_ @54
    _ZN16BinarySearchTreeIi9UDPClientE8freeTreeEPNS1_8TreeNodeE @55
    _ZN16BinarySearchTreeIi9UDPClientED1Ev @56
    _ZN16BinarySearchTreeIj9TCPClientE10removeNodeERPNS1_8TreeNodeERKj @57
    _ZN16BinarySearchTreeIj9TCPClientE12rem_swapNodeERPNS1_8TreeNodeES4_ @58
    _ZN16BinarySearchTreeIj9TCPClientE6insertERKjRKS0_ @59
    _ZN16BinarySearchTreeIj9TCPClientE8TreeNodeC1ERKjRKS0_PS2_S7_ @60
    _ZN16BinarySearchTreeIj9TCPClientE8dumpNodeEPNS1_8TreeNodeERSt6vectorIS0_SaIS0_EE @61
    _ZN16BinarySearchTreeIj9TCPClientE8freeTreeEPNS1_8TreeNodeE @62
    _ZN16BinarySearchTreeIj9TCPClientED1Ev @63
    _ZN16BinarySearchTreeIjP7NetNodeE6insertERKjRKS1_ @64
    _ZN16BinarySearchTreeIjP7NetNodeE8dumpNodeEPNS2_8TreeNodeERSt6vectorIS1_SaIS1_EE @65
    _ZN16BinarySearchTreeIjP7NetNodeE8freeTreeEPNS2_8TreeNodeE @66
    _ZN7NetNode11SetNodePortEt @67
    _ZN7NetNode12GetTCPSocketEi @68
    _ZN7NetNode12GetUDPSocketEv @69
    _ZN7NetNode13GenerateUDPIDEv @70
    _ZN7NetNode15AcceptTCPClientEv @71
    _ZN7NetNode16GetTCPClientInfoEj @72
    _ZN7NetNode17RegisterUDPClientERK9IPaddressi @73
    _ZN7NetNode19UnRegisterTCPClientEi @74
    _ZN7NetNode19UnRegisterUDPClientEi @75
    _ZN7NetNode5hasIDEj @76
    _ZN7NetNode9SetNodeIPEj @77
    _ZN7NetNodeC1EjRKSsjbib @78
    _ZN7NetNodeC1Ejjbi @79
    _ZN7NetNodeC2EjRKSsjbib @80
    _ZN7NetNodeC2Ejjbi @81
    _ZN7NetNodeD1Ev @82
    _ZN7NetNodeD2Ev @83
    _ZN9TCPClientD1Ev @84
    _ZNK16BinarySearchTreeIi9UDPClientE10searchNodeEPNS1_8TreeNodeERKiRS0_ @85
    _ZNK16BinarySearchTreeIj9TCPClientE10searchNodeEPNS1_8TreeNodeERKjRS0_ @86
    _ZNK7NetNode10GetAddressEv @87
    _ZNK7NetNode11isUDPIDUsedEi @88
    _ZNK7NetNode14GetClientCountEv @89
    _ZNK7NetNode16GetUDPClientInfoEi @90
    _ZNK7NetNode5isBadEv @91
    _ZNK7NetNode5isUDPEv @92
    _ZNK7NetNode7GetPortEv @93
    _ZNK7NetNode8isServerEv @94
    _ZNK7NetNode9GetNodeIDEv @95
    _ZNSt6vectorI9TCPClientSaIS0_EE19_M_emplace_back_auxIIRKS0_EEEvDpOT_ @96
    _ZNSt6vectorI9TCPClientSaIS0_EED1Ev @97
    _ZNSt6vectorIP7NetNodeSaIS1_EE19_M_emplace_back_auxIIRKS1_EEEvDpOT_ @98
    _get_output_format @99
    initNetwork @100
    ip_to_int @101
    mngr @102 DATA
    thrd @103 DATA
