EXPORTS
    _ZN10SoundQueue10ClearQueueEv @1
    _ZN10SoundQueue13PlayNextSoundEv @2
    _ZN10SoundQueue13SetFadeInTimeEj @3
    _ZN10SoundQueue14PlayMusicSoundEv @4
    _ZN10SoundQueue14StopMusicSoundEv @5
    _ZN10SoundQueue15AddSoundToQueueEPKcb @6
    _ZN10SoundQueue17SetRangeOfEffectsEi @7
    _ZN10SoundQueue21AddSoundBufferToQueueEPKcjbb @8
    _ZN10SoundQueue21UpdateMusicAroundHeroEP4Unit @9
    _ZN10SoundQueue8GCSoundsEv @10
    _ZN10SoundQueue9FlipMusicEv @11
    _ZN10SoundQueueC1EP4Game @12
    _ZN10SoundQueueC2EP4Game @13
    _ZN10SoundQueueD1Ev @14
    _ZN10SoundQueueD2Ev @15
    _ZN9__gnu_cxx13new_allocatorIP10sound_baseE10deallocateEPS2_j @16
    _ZN9__gnu_cxx13new_allocatorIP10sound_baseE7destroyIS2_EEvPT_ @17
    _ZN9__gnu_cxx13new_allocatorIP10sound_baseE8allocateEjPKv @18
    _ZN9__gnu_cxx13new_allocatorIP10sound_baseE9constructIS2_IRKS2_EEEvPT_DpOT0_ @19
    _ZN9__gnu_cxx13new_allocatorIP10sound_baseEC2ERKS3_ @20
    _ZN9__gnu_cxx13new_allocatorIP10sound_baseEC2Ev @21
    _ZN9__gnu_cxx13new_allocatorIP10sound_baseED2Ev @22
    _ZN9__gnu_cxx13new_allocatorIPP10sound_baseE10deallocateEPS3_j @23
    _ZN9__gnu_cxx13new_allocatorIPP10sound_baseE8allocateEjPKv @24
    _ZN9__gnu_cxx13new_allocatorIPP10sound_baseEC2Ev @25
    _ZN9__gnu_cxx13new_allocatorIPP10sound_baseED2Ev @26
    _ZNK10SoundQueue12channelsBusyEv @27
    _ZNK9__gnu_cxx13new_allocatorIP10sound_baseE8max_sizeEv @28
    _ZNK9__gnu_cxx13new_allocatorIPP10sound_baseE8max_sizeEv @29
    _ZNKSt11_Deque_baseIP10sound_baseSaIS1_EE19_M_get_Tp_allocatorEv @30
    _ZNKSt11_Deque_baseIP10sound_baseSaIS1_EE20_M_get_map_allocatorEv @31
    _ZNKSt15_Deque_iteratorIP10sound_baseRS1_PS1_EdeEv @32
    _ZNKSt5dequeIP10sound_baseSaIS1_EE5emptyEv @33
    _ZNKSt5queueIP10sound_baseSt5dequeIS1_SaIS1_EEE5emptyEv @34
    _ZNSaIP10sound_baseEC2ERKS1_ @35
    _ZNSaIP10sound_baseEC2Ev @36
    _ZNSaIP10sound_baseED2Ev @37
    _ZNSaIPP10sound_baseEC1IS0_EERKSaIT_E @38
    _ZNSaIPP10sound_baseED1Ev @39
    _ZNSt10_Iter_baseIPPP10sound_baseLb0EE7_S_baseES3_ @40
    _ZNSt11_Deque_baseIP10sound_baseSaIS1_EE11_Deque_implC1EOS2_ @41
    _ZNSt11_Deque_baseIP10sound_baseSaIS1_EE11_Deque_implC1Ev @42
    _ZNSt11_Deque_baseIP10sound_baseSaIS1_EE11_Deque_implD1Ev @43
    _ZNSt11_Deque_baseIP10sound_baseSaIS1_EE15_M_allocate_mapEj @44
    _ZNSt11_Deque_baseIP10sound_baseSaIS1_EE15_M_create_nodesEPPS1_S5_ @45
    _ZNSt11_Deque_baseIP10sound_baseSaIS1_EE16_M_allocate_nodeEv @46
    _ZNSt11_Deque_baseIP10sound_baseSaIS1_EE16_M_destroy_nodesEPPS1_S5_ @47
    _ZNSt11_Deque_baseIP10sound_baseSaIS1_EE17_M_deallocate_mapEPPS1_j @48
    _ZNSt11_Deque_baseIP10sound_baseSaIS1_EE17_M_initialize_mapEj @49
    _ZNSt11_Deque_baseIP10sound_baseSaIS1_EE18_M_deallocate_nodeEPS1_ @50
    _ZNSt11_Deque_baseIP10sound_baseSaIS1_EE19_M_get_Tp_allocatorEv @51
    _ZNSt11_Deque_baseIP10sound_baseSaIS1_EEC2EOS3_ @52
    _ZNSt11_Deque_baseIP10sound_baseSaIS1_EEC2Ev @53
    _ZNSt11_Deque_baseIP10sound_baseSaIS1_EED2Ev @54
    _ZNSt11__copy_moveILb0ELb1ESt26random_access_iterator_tagE8__copy_mIPP10sound_baseEEPT_PKS6_S9_S7_ @55
    _ZNSt15_Deque_iteratorIP10sound_baseRS1_PS1_E11_M_set_nodeEPS3_ @56
    _ZNSt15_Deque_iteratorIP10sound_baseRS1_PS1_E14_S_buffer_sizeEv @57
    _ZNSt15_Deque_iteratorIP10sound_baseRS1_PS1_EC1ERKS4_ @58
    _ZNSt15_Deque_iteratorIP10sound_baseRS1_PS1_EC1Ev @59
    _ZNSt20__copy_move_backwardILb0ELb1ESt26random_access_iterator_tagE13__copy_move_bIPP10sound_baseEEPT_PKS6_S9_S7_ @60
    _ZNSt5dequeIP10sound_baseSaIS1_EE15_M_destroy_dataESt15_Deque_iteratorIS1_RS1_PS1_ES7_RKS2_ @61
    _ZNSt5dequeIP10sound_baseSaIS1_EE16_M_pop_front_auxEv @62
    _ZNSt5dequeIP10sound_baseSaIS1_EE16_M_push_back_auxIIRKS1_EEEvDpOT_ @63
    _ZNSt5dequeIP10sound_baseSaIS1_EE17_M_reallocate_mapEjb @64
    _ZNSt5dequeIP10sound_baseSaIS1_EE22_M_reserve_map_at_backEj @65
    _ZNSt5dequeIP10sound_baseSaIS1_EE3endEv @66
    _ZNSt5dequeIP10sound_baseSaIS1_EE5beginEv @67
    _ZNSt5dequeIP10sound_baseSaIS1_EE5frontEv @68
    _ZNSt5dequeIP10sound_baseSaIS1_EE9pop_frontEv @69
    _ZNSt5dequeIP10sound_baseSaIS1_EE9push_backERKS1_ @70
    _ZNSt5dequeIP10sound_baseSaIS1_EEC1EOS3_ @71
    _ZNSt5dequeIP10sound_baseSaIS1_EEC1Ev @72
    _ZNSt5dequeIP10sound_baseSaIS1_EED1Ev @73
    _ZNSt5queueIP10sound_baseSt5dequeIS1_SaIS1_EEE3popEv @74
    _ZNSt5queueIP10sound_baseSt5dequeIS1_SaIS1_EEE4pushERKS1_ @75
    _ZNSt5queueIP10sound_baseSt5dequeIS1_SaIS1_EEE5frontEv @76
    _ZNSt5queueIP10sound_baseSt5dequeIS1_SaIS1_EEEC1EOS4_ @77
    _ZNSt5queueIP10sound_baseSt5dequeIS1_SaIS1_EEED1Ev @78
    _ZSt12__miter_baseIPPP10sound_baseENSt11_Miter_baseIT_E13iterator_typeES5_ @79
    _ZSt12__niter_baseIPPP10sound_baseENSt11_Niter_baseIT_E13iterator_typeES5_ @80
    _ZSt13__copy_move_aILb0EPPP10sound_baseS3_ET1_T0_S5_S4_ @81
    _ZSt13copy_backwardIPPP10sound_baseS3_ET0_T_S5_S4_ @82
    _ZSt14__copy_move_a2ILb0EPPP10sound_baseS3_ET1_T0_S5_S4_ @83
    _ZSt16__deque_buf_sizej @84
    _ZSt22__copy_move_backward_aILb0EPPP10sound_baseS3_ET1_T0_S5_S4_ @85
    _ZSt23__copy_move_backward_a2ILb0EPPP10sound_baseS3_ET1_T0_S5_S4_ @86
    _ZSt3maxIjERKT_S2_S2_ @87
    _ZSt4copyIPPP10sound_baseS3_ET0_T_S5_S4_ @88
    _ZSt4moveIRPPP10sound_baseEONSt16remove_referenceIT_E4typeEOS6_ @89
    _ZSt4moveIRSaIP10sound_baseEEONSt16remove_referenceIT_E4typeEOS5_ @90
    _ZSt4moveIRSt15_Deque_iteratorIP10sound_baseRS2_PS2_EEONSt16remove_referenceIT_E4typeEOS8_ @91
    _ZSt4moveIRSt5dequeIP10sound_baseSaIS2_EEEONSt16remove_referenceIT_E4typeEOS7_ @92
    _ZSt4moveIRjEONSt16remove_referenceIT_E4typeEOS2_ @93
    _ZSt4swapIPPP10sound_baseEvRT_S5_ @94
    _ZSt4swapISt15_Deque_iteratorIP10sound_baseRS2_PS2_EEvRT_S7_ @95
    _ZSt4swapIjEvRT_S1_ @96
    _ZSt7forwardIRKP10sound_baseEOT_RNSt16remove_referenceIS4_E4typeE @97
    _ZSteqIP10sound_baseRS1_PS1_EbRKSt15_Deque_iteratorIT_T0_T1_ESA_ @98
    _ZnwjPv @99
    _get_output_format @100
