EXPORTS
    _Z10findStringPKcS0_i @1
    _Z10searchCharcSs @2
    _Z10slicepCharPcii @3
    _Z11transferStrP5pCharPc @4
    _Z12roundDecimaldi @5
    _Z13capitalizeStrRKSs @6
    _Z13iroundDecimaldi @7
    _Z13lowerCaseCharc @8
    _Z14capitalizeCharc @9
    _Z14shiftArrayLeftPci @10
    _Z14shiftArrayLeftPcii @11
    _Z15checkUTF8StringRKSs @12
    _Z15replaceStrInStrSsRKSsS0_b @13
    _Z15searchCharIndexcPc @14
    _Z15searchCharIndexcSsi @15
    _Z16replaceCharInStrSsccb @16
    _Z16scientificFormatRKSsj @17
    _Z16scientificFormatfj @18
    _Z17convertASCII2UTF8RKSs @19
    _Z17convertUTF162UTF8RKSs @20
    _Z17convertUTF322UTF8RKSs @21
    _Z17convertUTF82UTF16RKSs @22
    _Z17convertUTF82UTF32RKSs @23
    _Z17removeCharFromStrcPKc @24
    _Z21createPCharFromBufferPci @25
    _Z23removeLeadingWhiteSpaceRKSs @26
    _Z25removeMultipleCharFromStrcPKc @27
    _Z26getCharArrayFromConstArrayRKSs @28
    _Z26shiftLeadingExponentZeroesPcj @29
    _Z29changeProgramWorkingDirectoryPc @30
    _Z5EndPyv @31
    _Z5isNumRSs @32
    _Z6InitPyv @33
    _Z8fuseStrsSsSs @34
    _Z8intToStri @35
    _Z8numToIntd @36
    _Z8numToStrd @37
    _Z8sliceStrSsii @38
    _Z9cStrToIntPKc @39
    _Z9cStrToNumPKc @40
    _Z9charToIntc @41
    _ZGVZN4utf815replace_invalidIN9__gnu_cxx17__normal_iteratorIPKcSsEESt20back_insert_iteratorISsEEET0_T_S9_S8_E18replacement_marker @42 DATA
    _ZN10ScriptWrap11AddArgumentEPv @43
    _ZN10ScriptWrap11AddArgumentERKSs @44
    _ZN10ScriptWrap11AddArgumentEb @45
    _ZN10ScriptWrap11AddArgumentEc @46
    _ZN10ScriptWrap11AddArgumentEd @47
    _ZN10ScriptWrap11AddArgumentEi @48
    _ZN10ScriptWrap11AddArgumentEj @49
    _ZN10ScriptWrap15executeFunctionERKSsRKSt6vectorI10psudo_typeSaIS3_EE @50
    _ZN10ScriptWrap15executeFunctionERKSsRKSt6vectorI10psudo_typeSaIS3_EERPv @51
    _ZN10ScriptWrap15executeFunctionERKSsRKSt6vectorI10psudo_typeSaIS3_EERS5_ @52
    _ZN10ScriptWrap15executeFunctionERKSsRKSt6vectorI10psudo_typeSaIS3_EERSs @53
    _ZN10ScriptWrap15executeFunctionERKSsRKSt6vectorI10psudo_typeSaIS3_EERb @54
    _ZN10ScriptWrap15executeFunctionERKSsRKSt6vectorI10psudo_typeSaIS3_EERc @55
    _ZN10ScriptWrap15executeFunctionERKSsRKSt6vectorI10psudo_typeSaIS3_EERd @56
    _ZN10ScriptWrap15executeFunctionERKSsRKSt6vectorI10psudo_typeSaIS3_EERi @57
    _ZN10ScriptWrap7NO_ARGSE @58 DATA
    _ZN10ScriptWrap9ClearArgsEj @59
    _ZN10ScriptWrapC1EPKc @60
    _ZN10ScriptWrapC2EPKc @61
    _ZN10ScriptWrapD1Ev @62
    _ZN10ScriptWrapD2Ev @63
    _ZN10psudo_typeC1EOS_ @64
    _ZN10psudo_typeC1ERKS_ @65
    _ZN10psudo_typeC1Ev @66
    _ZN10psudo_typeD1Ev @67
    _ZN10psudo_typeaSERKS_ @68
    _ZN12TextureStore10hasTextureEy @69
    _ZN12TextureStore13createTextureEPKcR12SDL_Renderer @70
    _ZN12TextureStore17IncrementTextLifeEP11SDL_Texture @71
    _ZN12TextureStore17LoadUniqueTextureEPKcR12SDL_Renderer @72
    _ZN12TextureStore19DeleteUniqueTextureEP11SDL_Texture @73
    _ZN12TextureStore7hasHashEP11SDL_Texture @74
    _ZN12TextureStoreC1Ev @75
    _ZN12TextureStoreC2Ev @76
    _ZN16BinarySearchTreeIP10ScriptWrapyE10insertNodeERPNS2_8TreeNodeERKS1_RKy @77
    _ZN16BinarySearchTreeIP10ScriptWrapyE10removeNodeERPNS2_8TreeNodeERKS1_ @78
    _ZN16BinarySearchTreeIP10ScriptWrapyE12rem_swapNodeERPNS2_8TreeNodeES5_ @79
    _ZN16BinarySearchTreeIP10ScriptWrapyE6insertERKS1_RKy @80
    _ZN16BinarySearchTreeIP10ScriptWrapyE6removeERKS1_ @81
    _ZN16BinarySearchTreeIP10ScriptWrapyE8TreeNodeC1ERKS1_RKyPS3_S8_ @82
    _ZN16BinarySearchTreeIP10ScriptWrapyE9getValRefEPNS2_8TreeNodeERKS1_ @83
    _ZN16BinarySearchTreeIP10ScriptWrapyEC1Ev @84
    _ZN16BinarySearchTreeIP10ScriptWrapyEixERKS1_ @85
    _ZN16BinarySearchTreeIP11SDL_TextureyE10insertNodeERPNS2_8TreeNodeERKS1_RKy @86
    _ZN16BinarySearchTreeIP11SDL_TextureyE10removeNodeERPNS2_8TreeNodeERKS1_ @87
    _ZN16BinarySearchTreeIP11SDL_TextureyE12rem_swapNodeERPNS2_8TreeNodeES5_ @88
    _ZN16BinarySearchTreeIP11SDL_TextureyE6insertERKS1_RKy @89
    _ZN16BinarySearchTreeIP11SDL_TextureyE6removeERKS1_ @90
    _ZN16BinarySearchTreeIP11SDL_TextureyE8TreeNodeC1ERKS1_RKyPS3_S8_ @91
    _ZN16BinarySearchTreeIP11SDL_TextureyE9getValRefEPNS2_8TreeNodeERKS1_ @92
    _ZN16BinarySearchTreeIP11SDL_TextureyEC1Ev @93
    _ZN16BinarySearchTreeIP11SDL_TextureyEixERKS1_ @94
    _ZN16BinarySearchTreeIyP10ScriptWrapE10insertNodeERPNS2_8TreeNodeERKyRKS1_ @95
    _ZN16BinarySearchTreeIyP10ScriptWrapE10removeNodeERPNS2_8TreeNodeERKy @96
    _ZN16BinarySearchTreeIyP10ScriptWrapE12rem_swapNodeERPNS2_8TreeNodeES5_ @97
    _ZN16BinarySearchTreeIyP10ScriptWrapE6insertERKyRKS1_ @98
    _ZN16BinarySearchTreeIyP10ScriptWrapE6removeERKy @99
    _ZN16BinarySearchTreeIyP10ScriptWrapE8TreeNodeC1ERKyRKS1_PS3_S8_ @100
    _ZN16BinarySearchTreeIyP10ScriptWrapE9getValRefEPNS2_8TreeNodeERKy @101
    _ZN16BinarySearchTreeIyP10ScriptWrapEC1Ev @102
    _ZN16BinarySearchTreeIyP10ScriptWrapEixERKy @103
    _ZN16BinarySearchTreeIyP11SDL_TextureE10insertNodeERPNS2_8TreeNodeERKyRKS1_ @104
    _ZN16BinarySearchTreeIyP11SDL_TextureE10removeNodeERPNS2_8TreeNodeERKy @105
    _ZN16BinarySearchTreeIyP11SDL_TextureE12rem_swapNodeERPNS2_8TreeNodeES5_ @106
    _ZN16BinarySearchTreeIyP11SDL_TextureE6insertERKyRKS1_ @107
    _ZN16BinarySearchTreeIyP11SDL_TextureE6removeERKy @108
    _ZN16BinarySearchTreeIyP11SDL_TextureE8TreeNodeC1ERKyRKS1_PS3_S8_ @109
    _ZN16BinarySearchTreeIyP11SDL_TextureE9getValRefEPNS2_8TreeNodeERKy @110
    _ZN16BinarySearchTreeIyP11SDL_TextureEC1Ev @111
    _ZN16BinarySearchTreeIyP11SDL_TextureEixERKy @112
    _ZN4utf812find_invalidIN9__gnu_cxx17__normal_iteratorIPKcSsEEEET_S6_S6_ @113
    _ZN4utf812invalid_utf8C1Eh @114
    _ZN4utf812invalid_utf8D0Ev @115
    _ZN4utf812invalid_utf8D1Ev @116
    _ZN4utf813invalid_utf16C1Et @117
    _ZN4utf813invalid_utf16D0Ev @118
    _ZN4utf813invalid_utf16D1Ev @119
    _ZN4utf815not_enough_roomC1Ev @120
    _ZN4utf815not_enough_roomD0Ev @121
    _ZN4utf815not_enough_roomD1Ev @122
    _ZN4utf815replace_invalidIN9__gnu_cxx17__normal_iteratorIPKcSsEESt20back_insert_iteratorISsEEET0_T_S9_S8_ @123
    _ZN4utf815replace_invalidIN9__gnu_cxx17__normal_iteratorIPKcSsEESt20back_insert_iteratorISsEEET0_T_S9_S8_j @124
    _ZN4utf818invalid_code_pointC1Ej @125
    _ZN4utf818invalid_code_pointD0Ev @126
    _ZN4utf818invalid_code_pointD1Ev @127
    _ZN4utf84nextIN9__gnu_cxx17__normal_iteratorIPKcSsEEEEjRT_S6_ @128
    _ZN4utf86appendISt20back_insert_iteratorISsEEET_jS3_ @129
    _ZN4utf88internal12is_surrogateIjEEbT_ @130
    _ZN4utf88internal13validate_nextIN9__gnu_cxx17__normal_iteratorIPKcSsEEEENS0_9utf_errorERT_S8_ @131
    _ZN4utf88internal13validate_nextIN9__gnu_cxx17__normal_iteratorIPKcSsEEEENS0_9utf_errorERT_S8_Rj @132
    _ZN4utf88internal14get_sequence_1IN9__gnu_cxx17__normal_iteratorIPKcSsEEEENS0_9utf_errorERT_S8_Rj @133
    _ZN4utf88internal14get_sequence_2IN9__gnu_cxx17__normal_iteratorIPKcSsEEEENS0_9utf_errorERT_S8_Rj @134
    _ZN4utf88internal14get_sequence_3IN9__gnu_cxx17__normal_iteratorIPKcSsEEEENS0_9utf_errorERT_S8_Rj @135
    _ZN4utf88internal14get_sequence_4IN9__gnu_cxx17__normal_iteratorIPKcSsEEEENS0_9utf_errorERT_S8_Rj @136
    _ZN4utf88internal15increase_safelyIN9__gnu_cxx17__normal_iteratorIPKcSsEEEENS0_9utf_errorERT_S8_ @137
    _ZN4utf88internal15sequence_lengthIN9__gnu_cxx17__normal_iteratorIPKcSsEEEENSt15iterator_traitsIT_E15difference_typeES8_ @138
    _ZN4utf88internal17is_lead_surrogateIjEEbT_ @139
    _ZN4utf88internal18is_trail_surrogateIjEEbT_ @140
    _ZN4utf88internal19is_code_point_validIjEEbT_ @141
    _ZN4utf88internal20is_overlong_sequenceIiEEbjT_ @142
    _ZN4utf88internal5mask8IcEEhT_ @143
    _ZN4utf88internal6mask16IcEEtT_ @144
    _ZN4utf88internal6mask16IiEEtT_ @145
    _ZN4utf88internal8is_trailIcEEbT_ @146
    _ZN4utf88is_validIN9__gnu_cxx17__normal_iteratorIPKcSsEEEEbT_S6_ @147
    _ZN4utf88utf16to8IN9__gnu_cxx17__normal_iteratorIPKcSsEESt20back_insert_iteratorISsEEET0_T_S9_S8_ @148
    _ZN4utf88utf32to8ISt20back_insert_iteratorISsEN9__gnu_cxx17__normal_iteratorIPKcSsEEEET_T0_S9_S8_ @149
    _ZN4utf88utf8to16ISt20back_insert_iteratorISsEN9__gnu_cxx17__normal_iteratorIPKcSsEEEET_T0_S9_S8_ @150
    _ZN4utf88utf8to32IN9__gnu_cxx17__normal_iteratorIPKcSsEESt20back_insert_iteratorISsEEET0_T_S9_S8_ @151
    _ZN4utf89exceptionC2Ev @152
    _ZN4utf89exceptionD0Ev @153
    _ZN4utf89exceptionD1Ev @154
    _ZN4utf89exceptionD2Ev @155
    _ZN6Pywrap11AddArgumentEPv @156
    _ZN6Pywrap11AddArgumentESs @157
    _ZN6Pywrap11AddArgumentEc @158
    _ZN6Pywrap11AddArgumentEd @159
    _ZN6Pywrap11AddArgumentEi @160
    _ZN6Pywrap11AddArgumentEj @161
    _ZN6Pywrap11DecreaseRefEP7_object @162
    _ZN6Pywrap11IncreaseRefEP7_object @163
    _ZN6Pywrap11SetFilePathEPKc @164
    _ZN6Pywrap11exec_pycodeEPKc @165
    _ZN6Pywrap11initializedE @166 DATA
    _ZN6Pywrap13exec_FullFileEPKcP7_object @167
    _ZN6Pywrap14ClearPyObjectsEv @168
    _ZN6Pywrap14executeReturnFEPKc @169
    _ZN6Pywrap15GetSizeOfResultEP7_object @170
    _ZN6Pywrap15LockInterpreterEv @171
    _ZN6Pywrap16CreateObjFromPtrEPv @172
    _ZN6Pywrap16executeNoReturnFEPKc @173
    _ZN6Pywrap17CleanCPyObjInArgsEv @174
    _ZN6Pywrap18ReleaseInterpreterEv @175
    _ZN6Pywrap19DisplayInternalVarsEv @176
    _ZN6Pywrap21GetItemFromResultListEP7_objectj @177
    _ZN6Pywrap23GenerateListFromPyTupleEP7_objectRSt6vectorI10psudo_typeSaIS3_EE @178
    _ZN6Pywrap8prepArgsEv @179
    _ZN6Pywrap9ClearArgsEj @180
    _ZN6PywrapC1EPKcj @181
    _ZN6PywrapC2EPKcj @182
    _ZN6PywrapD1Ev @183
    _ZN6PywrapD2Ev @184
    _ZN7AIStore12LoadUniqueAIEPKc @185
    _ZN7AIStore14DeleteUniqueAIEP10ScriptWrap @186
    _ZN7AIStore17IncrementTextLifeEP10ScriptWrap @187
    _ZN7AIStore5hasAIEy @188
    _ZN7AIStore7hasHashEP10ScriptWrap @189
    _ZN7AIStore8createAIEPKc @190
    _ZN7AIStoreC1Ev @191
    _ZN7AIStoreC2Ev @192
    _ZN9__gnu_cxx13new_allocatorI10psudo_typeE10deallocateEPS1_j @193
    _ZN9__gnu_cxx13new_allocatorI10psudo_typeE7destroyIS1_EEvPT_ @194
    _ZN9__gnu_cxx13new_allocatorI10psudo_typeE8allocateEjPKv @195
    _ZN9__gnu_cxx13new_allocatorI10psudo_typeE9constructIS1_IRKS1_EEEvPT_DpOT0_ @196
    _ZN9__gnu_cxx13new_allocatorI10psudo_typeEC2ERKS2_ @197
    _ZN9__gnu_cxx13new_allocatorI10psudo_typeEC2Ev @198
    _ZN9__gnu_cxx13new_allocatorI10psudo_typeED2Ev @199
    _ZN9__gnu_cxx13new_allocatorIP10psudo_typeE10deallocateEPS2_j @200
    _ZN9__gnu_cxx13new_allocatorIP10psudo_typeE8allocateEjPKv @201
    _ZN9__gnu_cxx13new_allocatorIP10psudo_typeEC2Ev @202
    _ZN9__gnu_cxx13new_allocatorIP10psudo_typeED2Ev @203
    _ZN9__gnu_cxx14__alloc_traitsISaI10psudo_typeEE15_S_always_equalEv @204
    _ZN9__gnu_cxx14__alloc_traitsISaI10psudo_typeEE27_S_propagate_on_copy_assignEv @205
    _ZN9__gnu_cxx14__alloc_traitsISaI10psudo_typeEE27_S_propagate_on_move_assignEv @206
    _ZN9__gnu_cxx17__normal_iteratorIP10psudo_typeSt6vectorIS1_SaIS1_EEEC1ERKS2_ @207
    _ZN9__gnu_cxx17__normal_iteratorIP10psudo_typeSt6vectorIS1_SaIS1_EEEppEv @208
    _ZN9__gnu_cxx17__normal_iteratorIPK10psudo_typeSt6vectorIS1_SaIS1_EEEC1ERKS3_ @209
    _ZN9__gnu_cxx17__normal_iteratorIPK10psudo_typeSt6vectorIS1_SaIS1_EEEppEv @210
    _ZN9__gnu_cxx17__normal_iteratorIPKcSsEC1ERKS2_ @211
    _ZN9__gnu_cxx17__normal_iteratorIPKcSsEppEi @212
    _ZN9__gnu_cxx17__normal_iteratorIPKcSsEppEv @213
    _ZN9__gnu_cxxeqIPKcSsEEbRKNS_17__normal_iteratorIT_T0_EES8_ @214
    _ZN9__gnu_cxxneIP10psudo_typeSt6vectorIS1_SaIS1_EEEEbRKNS_17__normal_iteratorIT_T0_EESB_ @215
    _ZN9__gnu_cxxneIPK10psudo_typeSt6vectorIS1_SaIS1_EEEEbRKNS_17__normal_iteratorIT_T0_EESC_ @216
    _ZN9__gnu_cxxneIPKcSsEEbRKNS_17__normal_iteratorIT_T0_EES8_ @217
    _ZNK10ScriptWrap13isInitializedEv @218
    _ZNK16BinarySearchTreeIP10ScriptWrapyE10searchNodeEPNS2_8TreeNodeERKS1_Ry @219
    _ZNK16BinarySearchTreeIP10ScriptWrapyE5emptyEv @220
    _ZNK16BinarySearchTreeIP10ScriptWrapyE6searchERKS1_Ry @221
    _ZNK16BinarySearchTreeIP11SDL_TextureyE10searchNodeEPNS2_8TreeNodeERKS1_Ry @222
    _ZNK16BinarySearchTreeIP11SDL_TextureyE5emptyEv @223
    _ZNK16BinarySearchTreeIP11SDL_TextureyE6searchERKS1_Ry @224
    _ZNK16BinarySearchTreeIyP10ScriptWrapE10searchNodeEPNS2_8TreeNodeERKyRS1_ @225
    _ZNK16BinarySearchTreeIyP10ScriptWrapE5emptyEv @226
    _ZNK16BinarySearchTreeIyP10ScriptWrapE6searchERKyRS1_ @227
    _ZNK16BinarySearchTreeIyP11SDL_TextureE10searchNodeEPNS2_8TreeNodeERKyRS1_ @228
    _ZNK16BinarySearchTreeIyP11SDL_TextureE5emptyEv @229
    _ZNK16BinarySearchTreeIyP11SDL_TextureE6searchERKyRS1_ @230
    _ZNK4utf812invalid_utf84whatEv @231
    _ZNK4utf813invalid_utf164whatEv @232
    _ZNK4utf815not_enough_room4whatEv @233
    _ZNK4utf818invalid_code_point4whatEv @234
    _ZNK6Pywrap12isFileLoadedEv @235
    _ZNK6Pywrap12isResultVoidEP7_object @236
    _ZNK6Pywrap13GetResultTypeEP7_objectj @237
    _ZNK6Pywrap13GetSizeOfArgsEv @238
    _ZNK6Pywrap13py_extractIntEP7_object @239
    _ZNK6Pywrap13py_extractPtrEP7_object @240
    _ZNK6Pywrap13py_extractStrEP7_object @241
    _ZNK6Pywrap14py_extractBoolEP7_object @242
    _ZNK6Pywrap14py_extractCharEP7_object @243
    _ZNK6Pywrap16py_extractDoubleEP7_object @244
    _ZNK6Pywrap21py_extractIntFromListEP7_objectj @245
    _ZNK6Pywrap21py_extractPtrFromListEP7_objectj @246
    _ZNK6Pywrap21py_extractStrFromListEP7_objectj @247
    _ZNK6Pywrap22py_extractBoolFromListEP7_objectj @248
    _ZNK6Pywrap22py_extractCharFromListEP7_objectj @249
    _ZNK6Pywrap24py_extractDoubleFromListEP7_objectj @250
    _ZNK9__gnu_cxx13new_allocatorI10psudo_typeE8max_sizeEv @251
    _ZNK9__gnu_cxx13new_allocatorIP10psudo_typeE8max_sizeEv @252
    _ZNK9__gnu_cxx17__normal_iteratorIP10psudo_typeSt6vectorIS1_SaIS1_EEE4baseEv @253
    _ZNK9__gnu_cxx17__normal_iteratorIP10psudo_typeSt6vectorIS1_SaIS1_EEEdeEv @254
    _ZNK9__gnu_cxx17__normal_iteratorIPK10psudo_typeSt6vectorIS1_SaIS1_EEE4baseEv @255
    _ZNK9__gnu_cxx17__normal_iteratorIPK10psudo_typeSt6vectorIS1_SaIS1_EEEdeEv @256
    _ZNK9__gnu_cxx17__normal_iteratorIPKcSsE4baseEv @257
    _ZNK9__gnu_cxx17__normal_iteratorIPKcSsEdeEv @258
    _ZNKSt11_Deque_baseI10psudo_typeSaIS0_EE19_M_get_Tp_allocatorEv @259
    _ZNKSt11_Deque_baseI10psudo_typeSaIS0_EE20_M_get_map_allocatorEv @260
    _ZNKSt12_Vector_baseI10psudo_typeSaIS0_EE19_M_get_Tp_allocatorEv @261
    _ZNKSt13move_iteratorIP10psudo_typeE4baseEv @262
    _ZNKSt13move_iteratorIP10psudo_typeEdeEv @263
    _ZNKSt15_Deque_iteratorI10psudo_typeRS0_PS0_EdeEv @264
    _ZNKSt5dequeI10psudo_typeSaIS0_EE4sizeEv @265
    _ZNKSt5dequeI10psudo_typeSaIS0_EE5emptyEv @266
    _ZNKSt5queueI10psudo_typeSt5dequeIS0_SaIS0_EEE4sizeEv @267
    _ZNKSt5queueI10psudo_typeSt5dequeIS0_SaIS0_EEE5emptyEv @268
    _ZNKSt6vectorI10psudo_typeSaIS0_EE12_M_check_lenEjPKc @269
    _ZNKSt6vectorI10psudo_typeSaIS0_EE3endEv @270
    _ZNKSt6vectorI10psudo_typeSaIS0_EE4sizeEv @271
    _ZNKSt6vectorI10psudo_typeSaIS0_EE5beginEv @272
    _ZNKSt6vectorI10psudo_typeSaIS0_EE8capacityEv @273
    _ZNKSt6vectorI10psudo_typeSaIS0_EE8max_sizeEv @274
    _ZNKSt6vectorI10psudo_typeSaIS0_EEixEj @275
    _ZNSaI10psudo_typeEC2ERKS0_ @276
    _ZNSaI10psudo_typeEC2Ev @277
    _ZNSaI10psudo_typeED2Ev @278
    _ZNSaIP10psudo_typeEC1IS_EERKSaIT_E @279
    _ZNSaIP10psudo_typeED1Ev @280
    _ZNSt10_Iter_baseIN9__gnu_cxx17__normal_iteratorIP10psudo_typeSt6vectorIS2_SaIS2_EEEELb1EE7_S_baseES7_ @281
    _ZNSt10_Iter_baseIN9__gnu_cxx17__normal_iteratorIPK10psudo_typeSt6vectorIS2_SaIS2_EEEELb0EE7_S_baseES8_ @282
    _ZNSt10_Iter_baseIN9__gnu_cxx17__normal_iteratorIPK10psudo_typeSt6vectorIS2_SaIS2_EEEELb1EE7_S_baseES8_ @283
    _ZNSt10_Iter_baseIP10psudo_typeLb0EE7_S_baseES1_ @284
    _ZNSt10_Iter_baseIPP10psudo_typeLb0EE7_S_baseES2_ @285
    _ZNSt11_Deque_baseI10psudo_typeSaIS0_EE11_Deque_implC1EOS1_ @286
    _ZNSt11_Deque_baseI10psudo_typeSaIS0_EE11_Deque_implC1Ev @287
    _ZNSt11_Deque_baseI10psudo_typeSaIS0_EE11_Deque_implD1Ev @288
    _ZNSt11_Deque_baseI10psudo_typeSaIS0_EE15_M_allocate_mapEj @289
    _ZNSt11_Deque_baseI10psudo_typeSaIS0_EE15_M_create_nodesEPPS0_S4_ @290
    _ZNSt11_Deque_baseI10psudo_typeSaIS0_EE16_M_allocate_nodeEv @291
    _ZNSt11_Deque_baseI10psudo_typeSaIS0_EE16_M_destroy_nodesEPPS0_S4_ @292
    _ZNSt11_Deque_baseI10psudo_typeSaIS0_EE17_M_deallocate_mapEPPS0_j @293
    _ZNSt11_Deque_baseI10psudo_typeSaIS0_EE17_M_initialize_mapEj @294
    _ZNSt11_Deque_baseI10psudo_typeSaIS0_EE18_M_deallocate_nodeEPS0_ @295
    _ZNSt11_Deque_baseI10psudo_typeSaIS0_EE19_M_get_Tp_allocatorEv @296
    _ZNSt11_Deque_baseI10psudo_typeSaIS0_EEC2EOS2_ @297
    _ZNSt11_Deque_baseI10psudo_typeSaIS0_EEC2Ev @298
    _ZNSt11_Deque_baseI10psudo_typeSaIS0_EED2Ev @299
    _ZNSt11__copy_moveILb0ELb0ESt26random_access_iterator_tagE8__copy_mIP10psudo_typeS4_EET0_T_S6_S5_ @300
    _ZNSt11__copy_moveILb0ELb0ESt26random_access_iterator_tagE8__copy_mIPK10psudo_typePS3_EET0_T_S8_S7_ @301
    _ZNSt11__copy_moveILb0ELb1ESt26random_access_iterator_tagE8__copy_mIP10psudo_typeEEPT_PKS5_S8_S6_ @302
    _ZNSt12_Destroy_auxILb0EE9__destroyIN9__gnu_cxx17__normal_iteratorIP10psudo_typeSt6vectorIS4_SaIS4_EEEEEEvT_SA_ @303
    _ZNSt12_Destroy_auxILb0EE9__destroyIP10psudo_typeEEvT_S4_ @304
    _ZNSt12_Vector_baseI10psudo_typeSaIS0_EE11_M_allocateEj @305
    _ZNSt12_Vector_baseI10psudo_typeSaIS0_EE12_Vector_impl12_M_swap_dataERS3_ @306
    _ZNSt12_Vector_baseI10psudo_typeSaIS0_EE12_Vector_implC1EOS1_ @307
    _ZNSt12_Vector_baseI10psudo_typeSaIS0_EE12_Vector_implC1Ev @308
    _ZNSt12_Vector_baseI10psudo_typeSaIS0_EE12_Vector_implD1Ev @309
    _ZNSt12_Vector_baseI10psudo_typeSaIS0_EE13_M_deallocateEPS0_j @310
    _ZNSt12_Vector_baseI10psudo_typeSaIS0_EE19_M_get_Tp_allocatorEv @311
    _ZNSt12_Vector_baseI10psudo_typeSaIS0_EEC2EOS2_ @312
    _ZNSt12_Vector_baseI10psudo_typeSaIS0_EEC2Ev @313
    _ZNSt12_Vector_baseI10psudo_typeSaIS0_EED2Ev @314
    _ZNSt13move_iteratorIP10psudo_typeEC1ES1_ @315
    _ZNSt13move_iteratorIP10psudo_typeEppEv @316
    _ZNSt15_Deque_iteratorI10psudo_typeRS0_PS0_E11_M_set_nodeEPS2_ @317
    _ZNSt15_Deque_iteratorI10psudo_typeRS0_PS0_E14_S_buffer_sizeEv @318
    _ZNSt15_Deque_iteratorI10psudo_typeRS0_PS0_EC1ERKS3_ @319
    _ZNSt15_Deque_iteratorI10psudo_typeRS0_PS0_EC1Ev @320
    _ZNSt16allocator_traitsISaI10psudo_typeEE10_S_destroyIS0_EENSt9enable_ifIXsrNS2_16__destroy_helperIT_EE5valueEvE4typeERS1_PS6_ @321
    _ZNSt16allocator_traitsISaI10psudo_typeEE11_S_max_sizeIKS1_EENSt9enable_ifIXsrNS2_16__maxsize_helperIT_EE5valueEjE4typeERS7_ @322
    _ZNSt16allocator_traitsISaI10psudo_typeEE12_S_constructIS0_IRKS0_EEENSt9enable_ifIXsrNS2_18__construct_helperIT_IDpT0_EEE5valueEvE4typeERS1_PS8_DpOS9_ @323
    _ZNSt16allocator_traitsISaI10psudo_typeEE7destroyIS0_EEvRS1_PT_ @324
    _ZNSt16allocator_traitsISaI10psudo_typeEE8max_sizeERKS1_ @325
    _ZNSt16allocator_traitsISaI10psudo_typeEE9constructIS0_IRKS0_EEEvRS1_PT_DpOT0_ @326
    _ZNSt20__copy_move_backwardILb0ELb1ESt26random_access_iterator_tagE13__copy_move_bIP10psudo_typeEEPT_PKS5_S8_S6_ @327
    _ZNSt20__uninitialized_copyILb0EE13__uninit_copyIN9__gnu_cxx17__normal_iteratorIPK10psudo_typeSt6vectorIS4_SaIS4_EEEEPS4_EET0_T_SD_SC_ @328
    _ZNSt20__uninitialized_copyILb0EE13__uninit_copyIP10psudo_typeS3_EET0_T_S5_S4_ @329
    _ZNSt20__uninitialized_copyILb0EE13__uninit_copyISt13move_iteratorIP10psudo_typeES4_EET0_T_S7_S6_ @330
    _ZNSt20back_insert_iteratorISsEC1ERSs @331
    _ZNSt20back_insert_iteratorISsEaSEOc @332
    _ZNSt20back_insert_iteratorISsEaSERKc @333
    _ZNSt20back_insert_iteratorISsEdeEv @334
    _ZNSt20back_insert_iteratorISsEppEi @335
    _ZNSt5dequeI10psudo_typeSaIS0_EE14_S_buffer_sizeEv @336
    _ZNSt5dequeI10psudo_typeSaIS0_EE15_M_destroy_dataESt15_Deque_iteratorIS0_RS0_PS0_ES6_RKS1_ @337
    _ZNSt5dequeI10psudo_typeSaIS0_EE16_M_pop_front_auxEv @338
    _ZNSt5dequeI10psudo_typeSaIS0_EE16_M_push_back_auxIIRKS0_EEEvDpOT_ @339
    _ZNSt5dequeI10psudo_typeSaIS0_EE17_M_reallocate_mapEjb @340
    _ZNSt5dequeI10psudo_typeSaIS0_EE19_M_destroy_data_auxESt15_Deque_iteratorIS0_RS0_PS0_ES6_ @341
    _ZNSt5dequeI10psudo_typeSaIS0_EE22_M_reserve_map_at_backEj @342
    _ZNSt5dequeI10psudo_typeSaIS0_EE3endEv @343
    _ZNSt5dequeI10psudo_typeSaIS0_EE5beginEv @344
    _ZNSt5dequeI10psudo_typeSaIS0_EE5frontEv @345
    _ZNSt5dequeI10psudo_typeSaIS0_EE9pop_frontEv @346
    _ZNSt5dequeI10psudo_typeSaIS0_EE9push_backERKS0_ @347
    _ZNSt5dequeI10psudo_typeSaIS0_EEC1EOS2_ @348
    _ZNSt5dequeI10psudo_typeSaIS0_EEC1Ev @349
    _ZNSt5dequeI10psudo_typeSaIS0_EED1Ev @350
    _ZNSt5queueI10psudo_typeSt5dequeIS0_SaIS0_EEE3popEv @351
    _ZNSt5queueI10psudo_typeSt5dequeIS0_SaIS0_EEE4pushERKS0_ @352
    _ZNSt5queueI10psudo_typeSt5dequeIS0_SaIS0_EEE5frontEv @353
    _ZNSt5queueI10psudo_typeSt5dequeIS0_SaIS0_EEEC1EOS3_ @354
    _ZNSt5queueI10psudo_typeSt5dequeIS0_SaIS0_EEED1Ev @355
    _ZNSt6vectorI10psudo_typeSaIS0_EE14_M_move_assignEOS2_St17integral_constantIbLb1EE @356
    _ZNSt6vectorI10psudo_typeSaIS0_EE15_M_erase_at_endEPS0_ @357
    _ZNSt6vectorI10psudo_typeSaIS0_EE19_M_emplace_back_auxIIRKS0_EEEvDpOT_ @358
    _ZNSt6vectorI10psudo_typeSaIS0_EE20_M_allocate_and_copyIN9__gnu_cxx17__normal_iteratorIPKS0_S2_EEEEPS0_jT_SA_ @359
    _ZNSt6vectorI10psudo_typeSaIS0_EE3endEv @360
    _ZNSt6vectorI10psudo_typeSaIS0_EE5beginEv @361
    _ZNSt6vectorI10psudo_typeSaIS0_EE5clearEv @362
    _ZNSt6vectorI10psudo_typeSaIS0_EE9push_backERKS0_ @363
    _ZNSt6vectorI10psudo_typeSaIS0_EEC1EOS2_ @364
    _ZNSt6vectorI10psudo_typeSaIS0_EEC1Ev @365
    _ZNSt6vectorI10psudo_typeSaIS0_EED1Ev @366
    _ZNSt6vectorI10psudo_typeSaIS0_EEaSEOS2_ @367
    _ZNSt6vectorI10psudo_typeSaIS0_EEaSERKS2_ @368
    _ZNSt8iteratorISt19output_iterator_tagvvvvEC2Ev @369
    _ZNSt9exceptionC2Ev @370
    _ZSt10_ConstructI10psudo_typeIRKS0_EEvPT_DpOT0_ @371
    _ZSt10_ConstructI10psudo_typeIRS0_EEvPT_DpOT0_ @372
    _ZSt10_ConstructI10psudo_typeIS0_EEvPT_DpOT0_ @373
    _ZSt11__addressofI10psudo_typeEPT_RS1_ @374
    _ZSt12__miter_baseIN9__gnu_cxx17__normal_iteratorIPK10psudo_typeSt6vectorIS2_SaIS2_EEEEENSt11_Miter_baseIT_E13iterator_typeESA_ @375
    _ZSt12__miter_baseIP10psudo_typeENSt11_Miter_baseIT_E13iterator_typeES3_ @376
    _ZSt12__miter_baseIPP10psudo_typeENSt11_Miter_baseIT_E13iterator_typeES4_ @377
    _ZSt12__niter_baseIN9__gnu_cxx17__normal_iteratorIP10psudo_typeSt6vectorIS2_SaIS2_EEEEENSt11_Niter_baseIT_E13iterator_typeES9_ @378
    _ZSt12__niter_baseIN9__gnu_cxx17__normal_iteratorIPK10psudo_typeSt6vectorIS2_SaIS2_EEEEENSt11_Niter_baseIT_E13iterator_typeESA_ @379
    _ZSt12__niter_baseIP10psudo_typeENSt11_Niter_baseIT_E13iterator_typeES3_ @380
    _ZSt12__niter_baseIPP10psudo_typeENSt11_Niter_baseIT_E13iterator_typeES4_ @381
    _ZSt13__copy_move_aILb0EP10psudo_typeS1_ET1_T0_S3_S2_ @382
    _ZSt13__copy_move_aILb0EPK10psudo_typePS0_ET1_T0_S5_S4_ @383
    _ZSt13__copy_move_aILb0EPP10psudo_typeS2_ET1_T0_S4_S3_ @384
    _ZSt13back_inserterISsESt20back_insert_iteratorIT_ERS1_ @385
    _ZSt13copy_backwardIPP10psudo_typeS2_ET0_T_S4_S3_ @386
    _ZSt14__copy_move_a2ILb0EN9__gnu_cxx17__normal_iteratorIPK10psudo_typeSt6vectorIS2_SaIS2_EEEENS1_IPS2_S7_EEET1_T0_SC_SB_ @387
    _ZSt14__copy_move_a2ILb0EP10psudo_typeS1_ET1_T0_S3_S2_ @388
    _ZSt14__copy_move_a2ILb0EPP10psudo_typeS2_ET1_T0_S4_S3_ @389
    _ZSt15__alloc_on_copyISaI10psudo_typeEEvRT_RKS2_ @390
    _ZSt15__alloc_on_moveISaI10psudo_typeEEvRT_S3_ @391
    _ZSt16__deque_buf_sizej @392
    _ZSt18__do_alloc_on_copyISaI10psudo_typeEEvRT_RKS2_St17integral_constantIbLb0EE @393
    _ZSt18__do_alloc_on_moveISaI10psudo_typeEEvRT_S3_St17integral_constantIbLb0EE @394
    _ZSt18uninitialized_copyIN9__gnu_cxx17__normal_iteratorIPK10psudo_typeSt6vectorIS2_SaIS2_EEEEPS2_ET0_T_SB_SA_ @395
    _ZSt18uninitialized_copyIP10psudo_typeS1_ET0_T_S3_S2_ @396
    _ZSt18uninitialized_copyISt13move_iteratorIP10psudo_typeES2_ET0_T_S5_S4_ @397
    _ZSt22__copy_move_backward_aILb0EPP10psudo_typeS2_ET1_T0_S4_S3_ @398
    _ZSt22__uninitialized_copy_aIN9__gnu_cxx17__normal_iteratorIPK10psudo_typeSt6vectorIS2_SaIS2_EEEEPS2_S2_ET0_T_SB_SA_RSaIT1_E @399
    _ZSt22__uninitialized_copy_aIP10psudo_typeS1_S0_ET0_T_S3_S2_RSaIT1_E @400
    _ZSt22__uninitialized_copy_aISt13move_iteratorIP10psudo_typeES2_S1_ET0_T_S5_S4_RSaIT1_E @401
    _ZSt23__copy_move_backward_a2ILb0EPP10psudo_typeS2_ET1_T0_S4_S3_ @402
    _ZSt32__make_move_if_noexcept_iteratorIP10psudo_typeSt13move_iteratorIS1_EET0_T_ @403
    _ZSt34__uninitialized_move_if_noexcept_aIP10psudo_typeS1_SaIS0_EET0_T_S4_S3_RT1_ @404
    _ZSt3maxIjERKT_S2_S2_ @405
    _ZSt4copyIN9__gnu_cxx17__normal_iteratorIPK10psudo_typeSt6vectorIS2_SaIS2_EEEENS1_IPS2_S7_EEET0_T_SC_SB_ @406
    _ZSt4copyIP10psudo_typeS1_ET0_T_S3_S2_ @407
    _ZSt4copyIPP10psudo_typeS2_ET0_T_S4_S3_ @408
    _ZSt4moveIR10psudo_typeEONSt16remove_referenceIT_E4typeEOS3_ @409
    _ZSt4moveIRP10psudo_typeEONSt16remove_referenceIT_E4typeEOS4_ @410
    _ZSt4moveIRPP10psudo_typeEONSt16remove_referenceIT_E4typeEOS5_ @411
    _ZSt4moveIRSaI10psudo_typeEEONSt16remove_referenceIT_E4typeEOS4_ @412
    _ZSt4moveIRSsEONSt16remove_referenceIT_E4typeEOS2_ @413
    _ZSt4moveIRSt15_Deque_iteratorI10psudo_typeRS1_PS1_EEONSt16remove_referenceIT_E4typeEOS7_ @414
    _ZSt4moveIRSt5dequeI10psudo_typeSaIS1_EEEONSt16remove_referenceIT_E4typeEOS6_ @415
    _ZSt4moveIRSt6vectorI10psudo_typeSaIS1_EEEONSt16remove_referenceIT_E4typeEOS6_ @416
    _ZSt4moveIRcEONSt16remove_referenceIT_E4typeEOS2_ @417
    _ZSt4moveIRjEONSt16remove_referenceIT_E4typeEOS2_ @418
    _ZSt4swapIP10psudo_typeEvRT_S3_ @419
    _ZSt4swapIPP10psudo_typeEvRT_S4_ @420
    _ZSt4swapISt15_Deque_iteratorI10psudo_typeRS1_PS1_EEvRT_S6_ @421
    _ZSt4swapIjEvRT_S1_ @422
    _ZSt7forwardI10psudo_typeEOT_RNSt16remove_referenceIS1_E4typeE @423
    _ZSt7forwardIR10psudo_typeEOT_RNSt16remove_referenceIS2_E4typeE @424
    _ZSt7forwardIRK10psudo_typeEOT_RNSt16remove_referenceIS3_E4typeE @425
    _ZSt8_DestroyI10psudo_typeEvPT_ @426
    _ZSt8_DestroyIN9__gnu_cxx17__normal_iteratorIP10psudo_typeSt6vectorIS2_SaIS2_EEEEEvT_S8_ @427
    _ZSt8_DestroyIN9__gnu_cxx17__normal_iteratorIP10psudo_typeSt6vectorIS2_SaIS2_EEEES2_EvT_S8_RSaIT0_E @428
    _ZSt8_DestroyIP10psudo_typeEvT_S2_ @429
    _ZSt8_DestroyIP10psudo_typeS0_EvT_S2_RSaIT0_E @430
    _ZSteqI10psudo_typeRS0_PS0_EbRKSt15_Deque_iteratorIT_T0_T1_ES9_ @431
    _ZSteqIP10psudo_typeEbRKSt13move_iteratorIT_ES6_ @432
    _ZSteqIcSt11char_traitsIcESaIcEEbRKSbIT_T0_T1_EPKS3_ @433
    _ZStmiI10psudo_typeRS0_PS0_ENSt15_Deque_iteratorIT_T0_T1_E15difference_typeERKS7_SA_ @434
    _ZStneI10psudo_typeEbRKSaIT_ES4_ @435
    _ZStneIP10psudo_typeEbRKSt13move_iteratorIT_ES6_ @436
    _ZStorSt13_Ios_OpenmodeS_ @437
    _ZStplIcSt11char_traitsIcESaIcEESbIT_T0_T1_EOS6_PKS3_ @438
    _ZStplIcSt11char_traitsIcESaIcEESbIT_T0_T1_EPKS3_OS6_ @439
    _ZStplIcSt11char_traitsIcESaIcEESbIT_T0_T1_ERKS6_OS6_ @440
    _ZStplIcSt11char_traitsIcESaIcEESbIT_T0_T1_ERKS6_S8_ @441
    _ZStplIcSt11char_traitsIcESaIcEESbIT_T0_T1_ES3_RKS6_ @442
    _ZTIN4utf812invalid_utf8E @443 DATA
    _ZTIN4utf813invalid_utf16E @444 DATA
    _ZTIN4utf815not_enough_roomE @445 DATA
    _ZTIN4utf818invalid_code_pointE @446 DATA
    _ZTIN4utf89exceptionE @447 DATA
    _ZTISt9exception @448 DATA
    _ZTSN4utf812invalid_utf8E @449 DATA
    _ZTSN4utf813invalid_utf16E @450 DATA
    _ZTSN4utf815not_enough_roomE @451 DATA
    _ZTSN4utf818invalid_code_pointE @452 DATA
    _ZTSN4utf89exceptionE @453 DATA
    _ZTSSt9exception @454 DATA
    _ZTVN4utf812invalid_utf8E @455 DATA
    _ZTVN4utf813invalid_utf16E @456 DATA
    _ZTVN4utf815not_enough_roomE @457 DATA
    _ZTVN4utf818invalid_code_pointE @458 DATA
    _ZTVN4utf89exceptionE @459 DATA
    _ZZN4utf815replace_invalidIN9__gnu_cxx17__normal_iteratorIPKcSsEESt20back_insert_iteratorISsEEET0_T_S9_S8_E18replacement_marker @460 DATA
    _ZdlPvS_ @461
    _ZnwjPv @462
    _get_output_format @463
    sprintf @464
