EXPORTS
    _Z10findStringPKcS0_i @1
    _Z10randNormal5Range @2
    _Z10searchCharcSs @3
    _Z10slicepCharPcii @4
    _Z11randUniform5Range @5
    _Z11transferStrP5pCharPc @6
    _Z12randBinomial5Range @7
    _Z12roundDecimaldi @8
    _Z13capitalizeStrRKSs @9
    _Z13iroundDecimaldi @10
    _Z13lowerCaseCharc @11
    _Z14capitalizeCharc @12
    _Z14shiftArrayLeftPci @13
    _Z14shiftArrayLeftPcii @14
    _Z15checkUTF8StringRKSs @15
    _Z15replaceStrInStrSsRKSsS0_b @16
    _Z15searchCharIndexcPc @17
    _Z15searchCharIndexcSsi @18
    _Z16GetMaxValueSizeTv @19
    _Z16replaceCharInStrSsccb @20
    _Z16scientificFormatRKSsj @21
    _Z16scientificFormatfj @22
    _Z17convertASCII2UTF8RKSs @23
    _Z17convertUTF162UTF8RKSs @24
    _Z17convertUTF322UTF8RKSs @25
    _Z17convertUTF82UTF16RKSs @26
    _Z17convertUTF82UTF32RKSs @27
    _Z17removeCharFromStrcPKc @28
    _Z21createPCharFromBufferPci @29
    _Z23removeLeadingWhiteSpaceRKSs @30
    _Z25removeMultipleCharFromStrcPKc @31
    _Z26getCharArrayFromConstArrayRKSs @32
    _Z26shiftLeadingExponentZeroesPcj @33
    _Z29changeProgramWorkingDirectoryPKc @34
    _Z5isNumRSs @35
    _Z6hasherv @36
    _Z8fuseStrsSsSs @37
    _Z8intToStri @38
    _Z8numToIntd @39
    _Z8numToStrd @40
    _Z8sliceStrSsii @41
    _Z9cStrToIntPKc @42
    _Z9cStrToNumPKc @43
    _Z9charToIntc @44
    _ZGVZN4utf815replace_invalidIN9__gnu_cxx17__normal_iteratorIPKcSsEESt20back_insert_iteratorISsEEET0_T_S9_S8_E18replacement_marker @45 DATA
    _ZN12ThreadSystem10JoinThreadEj @46
    _ZN12ThreadSystem10SignalCondEj @47
    _ZN12ThreadSystem10SpawnMutexEv @48
    _ZN12ThreadSystem10generateIDEc @49
    _ZN12ThreadSystem11CloseThreadEj @50
    _ZN12ThreadSystem11DeleteMutexEj @51
    _ZN12ThreadSystem11SpawnThreadEPFPvS0_ES0_ @52
    _ZN12ThreadSystem11UnlockMutexEj @53
    _ZN12ThreadSystem11WaitForCondEjj @54
    _ZN12ThreadSystem12SpawnCondVarEv @55
    _ZN12ThreadSystem20GetConditionVariableEj @56
    _ZN12ThreadSystem23DeleteConditionVariableEj @57
    _ZN12ThreadSystem5hasIDEjc @58
    _ZN12ThreadSystem8GetMutexEj @59
    _ZN12ThreadSystem9LockMutexEj @60
    _ZN12ThreadSystemC1Ev @61
    _ZN12ThreadSystemC2Ev @62
    _ZN12ThreadSystemD1Ev @63
    _ZN12ThreadSystemD2Ev @64
    _ZN15pthreads_opaqueIPjEC1ERS0_j @65
    _ZN15pthreads_opaqueIPjEeqERS1_ @66
    _ZN15pthreads_opaqueIPjEeqERj @67
    _ZN15pthreads_opaqueIPvEC1ERS0_j @68
    _ZN15pthreads_opaqueIPvEeqERS1_ @69
    _ZN15pthreads_opaqueIPvEeqERj @70
    _ZN19indexed_opaque_listI15pthreads_opaqueIPjEEC1Ev @71
    _ZN19indexed_opaque_listI15pthreads_opaqueIPjEED1Ev @72
    _ZN19indexed_opaque_listI15pthreads_opaqueIPjEEixEj @73
    _ZN19indexed_opaque_listI15pthreads_opaqueIPvEEC1Ev @74
    _ZN19indexed_opaque_listI15pthreads_opaqueIPvEED1Ev @75
    _ZN19indexed_opaque_listI15pthreads_opaqueIPvEEixEj @76
    _ZN4utf812find_invalidIN9__gnu_cxx17__normal_iteratorIPKcSsEEEET_S6_S6_ @77
    _ZN4utf812invalid_utf8C1Eh @78
    _ZN4utf812invalid_utf8D0Ev @79
    _ZN4utf812invalid_utf8D1Ev @80
    _ZN4utf813invalid_utf16C1Et @81
    _ZN4utf813invalid_utf16D0Ev @82
    _ZN4utf813invalid_utf16D1Ev @83
    _ZN4utf815not_enough_roomC1Ev @84
    _ZN4utf815not_enough_roomD0Ev @85
    _ZN4utf815not_enough_roomD1Ev @86
    _ZN4utf815replace_invalidIN9__gnu_cxx17__normal_iteratorIPKcSsEESt20back_insert_iteratorISsEEET0_T_S9_S8_ @87
    _ZN4utf815replace_invalidIN9__gnu_cxx17__normal_iteratorIPKcSsEESt20back_insert_iteratorISsEEET0_T_S9_S8_j @88
    _ZN4utf818invalid_code_pointC1Ej @89
    _ZN4utf818invalid_code_pointD0Ev @90
    _ZN4utf818invalid_code_pointD1Ev @91
    _ZN4utf84nextIN9__gnu_cxx17__normal_iteratorIPKcSsEEEEjRT_S6_ @92
    _ZN4utf86appendISt20back_insert_iteratorISsEEET_jS3_ @93
    _ZN4utf88internal12is_surrogateIjEEbT_ @94
    _ZN4utf88internal13validate_nextIN9__gnu_cxx17__normal_iteratorIPKcSsEEEENS0_9utf_errorERT_S8_ @95
    _ZN4utf88internal13validate_nextIN9__gnu_cxx17__normal_iteratorIPKcSsEEEENS0_9utf_errorERT_S8_Rj @96
    _ZN4utf88internal14get_sequence_1IN9__gnu_cxx17__normal_iteratorIPKcSsEEEENS0_9utf_errorERT_S8_Rj @97
    _ZN4utf88internal14get_sequence_2IN9__gnu_cxx17__normal_iteratorIPKcSsEEEENS0_9utf_errorERT_S8_Rj @98
    _ZN4utf88internal14get_sequence_3IN9__gnu_cxx17__normal_iteratorIPKcSsEEEENS0_9utf_errorERT_S8_Rj @99
    _ZN4utf88internal14get_sequence_4IN9__gnu_cxx17__normal_iteratorIPKcSsEEEENS0_9utf_errorERT_S8_Rj @100
    _ZN4utf88internal15increase_safelyIN9__gnu_cxx17__normal_iteratorIPKcSsEEEENS0_9utf_errorERT_S8_ @101
    _ZN4utf88internal15sequence_lengthIN9__gnu_cxx17__normal_iteratorIPKcSsEEEENSt15iterator_traitsIT_E15difference_typeES8_ @102
    _ZN4utf88internal17is_lead_surrogateIjEEbT_ @103
    _ZN4utf88internal18is_trail_surrogateIjEEbT_ @104
    _ZN4utf88internal19is_code_point_validIjEEbT_ @105
    _ZN4utf88internal20is_overlong_sequenceIiEEbjT_ @106
    _ZN4utf88internal5mask8IcEEhT_ @107
    _ZN4utf88internal6mask16IcEEtT_ @108
    _ZN4utf88internal6mask16IiEEtT_ @109
    _ZN4utf88internal8is_trailIcEEbT_ @110
    _ZN4utf88is_validIN9__gnu_cxx17__normal_iteratorIPKcSsEEEEbT_S6_ @111
    _ZN4utf88utf16to8IN9__gnu_cxx17__normal_iteratorIPKcSsEESt20back_insert_iteratorISsEEET0_T_S9_S8_ @112
    _ZN4utf88utf32to8ISt20back_insert_iteratorISsEN9__gnu_cxx17__normal_iteratorIPKcSsEEEET_T0_S9_S8_ @113
    _ZN4utf88utf8to16ISt20back_insert_iteratorISsEN9__gnu_cxx17__normal_iteratorIPKcSsEEEET_T0_S9_S8_ @114
    _ZN4utf88utf8to32IN9__gnu_cxx17__normal_iteratorIPKcSsEESt20back_insert_iteratorISsEEET0_T_S9_S8_ @115
    _ZN4utf89exceptionC2Ev @116
    _ZN4utf89exceptionD0Ev @117
    _ZN4utf89exceptionD1Ev @118
    _ZN4utf89exceptionD2Ev @119
    _ZN5RangeC1Ejj @120
    _ZN9__gnu_cxx13new_allocatorISt10_List_nodeI15pthreads_opaqueIPjEEE10deallocateEPS5_j @121
    _ZN9__gnu_cxx13new_allocatorISt10_List_nodeI15pthreads_opaqueIPjEEE7destroyIS5_EEvPT_ @122
    _ZN9__gnu_cxx13new_allocatorISt10_List_nodeI15pthreads_opaqueIPjEEE8allocateEjPKv @123
    _ZN9__gnu_cxx13new_allocatorISt10_List_nodeI15pthreads_opaqueIPjEEE9constructIS5_IS4_EEEvPT_DpOT0_ @124
    _ZN9__gnu_cxx13new_allocatorISt10_List_nodeI15pthreads_opaqueIPjEEEC2Ev @125
    _ZN9__gnu_cxx13new_allocatorISt10_List_nodeI15pthreads_opaqueIPjEEED2Ev @126
    _ZN9__gnu_cxx13new_allocatorISt10_List_nodeI15pthreads_opaqueIPvEEE10deallocateEPS5_j @127
    _ZN9__gnu_cxx13new_allocatorISt10_List_nodeI15pthreads_opaqueIPvEEE7destroyIS5_EEvPT_ @128
    _ZN9__gnu_cxx13new_allocatorISt10_List_nodeI15pthreads_opaqueIPvEEE8allocateEjPKv @129
    _ZN9__gnu_cxx13new_allocatorISt10_List_nodeI15pthreads_opaqueIPvEEE9constructIS5_IS4_EEEvPT_DpOT0_ @130
    _ZN9__gnu_cxx13new_allocatorISt10_List_nodeI15pthreads_opaqueIPvEEEC2Ev @131
    _ZN9__gnu_cxx13new_allocatorISt10_List_nodeI15pthreads_opaqueIPvEEED2Ev @132
    _ZN9__gnu_cxx17__normal_iteratorIPKcSsEC1ERKS2_ @133
    _ZN9__gnu_cxx17__normal_iteratorIPKcSsEppEi @134
    _ZN9__gnu_cxx17__normal_iteratorIPKcSsEppEv @135
    _ZN9__gnu_cxxeqIPKcSsEEbRKNS_17__normal_iteratorIT_T0_EES8_ @136
    _ZN9__gnu_cxxneIPKcSsEEbRKNS_17__normal_iteratorIT_T0_EES8_ @137
    _ZNK4utf812invalid_utf84whatEv @138
    _ZNK4utf813invalid_utf164whatEv @139
    _ZNK4utf815not_enough_room4whatEv @140
    _ZNK4utf818invalid_code_point4whatEv @141
    _ZNK9__gnu_cxx13new_allocatorISt10_List_nodeI15pthreads_opaqueIPjEEE8max_sizeEv @142
    _ZNK9__gnu_cxx13new_allocatorISt10_List_nodeI15pthreads_opaqueIPvEEE8max_sizeEv @143
    _ZNK9__gnu_cxx17__normal_iteratorIPKcSsE4baseEv @144
    _ZNK9__gnu_cxx17__normal_iteratorIPKcSsEdeEv @145
    _ZNKSt14_List_iteratorI15pthreads_opaqueIPjEEdeEv @146
    _ZNKSt14_List_iteratorI15pthreads_opaqueIPjEEneERKS3_ @147
    _ZNKSt14_List_iteratorI15pthreads_opaqueIPjEEptEv @148
    _ZNKSt14_List_iteratorI15pthreads_opaqueIPvEEdeEv @149
    _ZNKSt14_List_iteratorI15pthreads_opaqueIPvEEneERKS3_ @150
    _ZNKSt14_List_iteratorI15pthreads_opaqueIPvEEptEv @151
    _ZNKSt19normal_distributionIdE10param_type4meanEv @152
    _ZNKSt19normal_distributionIdE10param_type6stddevEv @153
    _ZNKSt21binomial_distributionIjE10param_type1pEv @154
    _ZNKSt21binomial_distributionIjE10param_type1tEv @155
    _ZNKSt24uniform_int_distributionIjE10param_type1aEv @156
    _ZNKSt24uniform_int_distributionIjE10param_type1bEv @157
    _ZNSaISt10_List_nodeI15pthreads_opaqueIPjEEEC2Ev @158
    _ZNSaISt10_List_nodeI15pthreads_opaqueIPjEEED2Ev @159
    _ZNSaISt10_List_nodeI15pthreads_opaqueIPvEEEC2Ev @160
    _ZNSaISt10_List_nodeI15pthreads_opaqueIPvEEED2Ev @161
    _ZNSt10_List_baseI15pthreads_opaqueIPjESaIS2_EE10_List_implC1Ev @162
    _ZNSt10_List_baseI15pthreads_opaqueIPjESaIS2_EE10_List_implD1Ev @163
    _ZNSt10_List_baseI15pthreads_opaqueIPjESaIS2_EE11_M_get_nodeEv @164
    _ZNSt10_List_baseI15pthreads_opaqueIPjESaIS2_EE11_M_put_nodeEPSt10_List_nodeIS2_E @165
    _ZNSt10_List_baseI15pthreads_opaqueIPjESaIS2_EE21_M_get_Node_allocatorEv @166
    _ZNSt10_List_baseI15pthreads_opaqueIPjESaIS2_EE7_M_initEv @167
    _ZNSt10_List_baseI15pthreads_opaqueIPjESaIS2_EE8_M_clearEv @168
    _ZNSt10_List_baseI15pthreads_opaqueIPjESaIS2_EEC2Ev @169
    _ZNSt10_List_baseI15pthreads_opaqueIPjESaIS2_EED2Ev @170
    _ZNSt10_List_baseI15pthreads_opaqueIPvESaIS2_EE10_List_implC1Ev @171
    _ZNSt10_List_baseI15pthreads_opaqueIPvESaIS2_EE10_List_implD1Ev @172
    _ZNSt10_List_baseI15pthreads_opaqueIPvESaIS2_EE11_M_get_nodeEv @173
    _ZNSt10_List_baseI15pthreads_opaqueIPvESaIS2_EE11_M_put_nodeEPSt10_List_nodeIS2_E @174
    _ZNSt10_List_baseI15pthreads_opaqueIPvESaIS2_EE21_M_get_Node_allocatorEv @175
    _ZNSt10_List_baseI15pthreads_opaqueIPvESaIS2_EE7_M_initEv @176
    _ZNSt10_List_baseI15pthreads_opaqueIPvESaIS2_EE8_M_clearEv @177
    _ZNSt10_List_baseI15pthreads_opaqueIPvESaIS2_EEC2Ev @178
    _ZNSt10_List_baseI15pthreads_opaqueIPvESaIS2_EED2Ev @179
    _ZNSt10_List_nodeI15pthreads_opaqueIPjEEC1IIS2_EEEDpOT_ @180
    _ZNSt10_List_nodeI15pthreads_opaqueIPvEEC1IIS2_EEEDpOT_ @181
    _ZNSt14_List_iteratorI15pthreads_opaqueIPjEEC1EPNSt8__detail15_List_node_baseE @182
    _ZNSt14_List_iteratorI15pthreads_opaqueIPjEEC1Ev @183
    _ZNSt14_List_iteratorI15pthreads_opaqueIPjEEppEi @184
    _ZNSt14_List_iteratorI15pthreads_opaqueIPvEEC1EPNSt8__detail15_List_node_baseE @185
    _ZNSt14_List_iteratorI15pthreads_opaqueIPvEEC1Ev @186
    _ZNSt14_List_iteratorI15pthreads_opaqueIPvEEppEi @187
    _ZNSt14numeric_limitsIdE7epsilonEv @188
    _ZNSt14numeric_limitsIjE3maxEv @189
    _ZNSt19normal_distributionIdE10param_typeC1Edd @190
    _ZNSt19normal_distributionIdEC1Edd @191
    _ZNSt19normal_distributionIdEclISt23mersenne_twister_engineIjLj32ELj624ELj397ELj31ELj2567483615ELj11ELj4294967295ELj7ELj2636928640ELj15ELj4022730752ELj18ELj1812433253EEEEdRT_ @192
    _ZNSt19normal_distributionIdEclISt23mersenne_twister_engineIjLj32ELj624ELj397ELj31ELj2567483615ELj11ELj4294967295ELj7ELj2636928640ELj15ELj4022730752ELj18ELj1812433253EEEEdRT_RKNS0_10param_typeE @193
    _ZNSt20back_insert_iteratorISsEC1ERSs @194
    _ZNSt20back_insert_iteratorISsEaSEOc @195
    _ZNSt20back_insert_iteratorISsEaSERKc @196
    _ZNSt20back_insert_iteratorISsEdeEv @197
    _ZNSt20back_insert_iteratorISsEppEi @198
    _ZNSt21binomial_distributionIjE10_M_waitingISt23mersenne_twister_engineIjLj32ELj624ELj397ELj31ELj2567483615ELj11ELj4294967295ELj7ELj2636928640ELj15ELj4022730752ELj18ELj1812433253EEEEjRT_j @199
    _ZNSt21binomial_distributionIjE10param_type13_M_initializeEv @200
    _ZNSt21binomial_distributionIjE10param_typeC1Ejd @201
    _ZNSt21binomial_distributionIjEC1Ejd @202
    _ZNSt21binomial_distributionIjEclISt23mersenne_twister_engineIjLj32ELj624ELj397ELj31ELj2567483615ELj11ELj4294967295ELj7ELj2636928640ELj15ELj4022730752ELj18ELj1812433253EEEEjRT_ @203
    _ZNSt21binomial_distributionIjEclISt23mersenne_twister_engineIjLj32ELj624ELj397ELj31ELj2567483615ELj11ELj4294967295ELj7ELj2636928640ELj15ELj4022730752ELj18ELj1812433253EEEEjRT_RKNS0_10param_typeE @204
    _ZNSt23mersenne_twister_engineIjLj32ELj624ELj397ELj31ELj2567483615ELj11ELj4294967295ELj7ELj2636928640ELj15ELj4022730752ELj18ELj1812433253EE11_M_gen_randEv @205
    _ZNSt23mersenne_twister_engineIjLj32ELj624ELj397ELj31ELj2567483615ELj11ELj4294967295ELj7ELj2636928640ELj15ELj4022730752ELj18ELj1812433253EE3maxEv @206
    _ZNSt23mersenne_twister_engineIjLj32ELj624ELj397ELj31ELj2567483615ELj11ELj4294967295ELj7ELj2636928640ELj15ELj4022730752ELj18ELj1812433253EE3minEv @207
    _ZNSt23mersenne_twister_engineIjLj32ELj624ELj397ELj31ELj2567483615ELj11ELj4294967295ELj7ELj2636928640ELj15ELj4022730752ELj18ELj1812433253EE4seedEj @208
    _ZNSt23mersenne_twister_engineIjLj32ELj624ELj397ELj31ELj2567483615ELj11ELj4294967295ELj7ELj2636928640ELj15ELj4022730752ELj18ELj1812433253EEC1Ej @209
    _ZNSt23mersenne_twister_engineIjLj32ELj624ELj397ELj31ELj2567483615ELj11ELj4294967295ELj7ELj2636928640ELj15ELj4022730752ELj18ELj1812433253EEclEv @210
    _ZNSt24uniform_int_distributionIjE10param_typeC1Ejj @211
    _ZNSt24uniform_int_distributionIjEC1Ejj @212
    _ZNSt24uniform_int_distributionIjEclISt23mersenne_twister_engineIjLj32ELj624ELj397ELj31ELj2567483615ELj11ELj4294967295ELj7ELj2636928640ELj15ELj4022730752ELj18ELj1812433253EEEEjRT_ @213
    _ZNSt24uniform_int_distributionIjEclISt23mersenne_twister_engineIjLj32ELj624ELj397ELj31ELj2567483615ELj11ELj4294967295ELj7ELj2636928640ELj15ELj4022730752ELj18ELj1812433253EEEEjRT_RKNS0_10param_typeE @214
    _ZNSt4listI15pthreads_opaqueIPjESaIS2_EE14_M_create_nodeIIS2_EEEPSt10_List_nodeIS2_EDpOT_ @215
    _ZNSt4listI15pthreads_opaqueIPjESaIS2_EE3endEv @216
    _ZNSt4listI15pthreads_opaqueIPjESaIS2_EE5beginEv @217
    _ZNSt4listI15pthreads_opaqueIPjESaIS2_EE5eraseESt14_List_iteratorIS2_E @218
    _ZNSt4listI15pthreads_opaqueIPjESaIS2_EE8_M_eraseESt14_List_iteratorIS2_E @219
    _ZNSt4listI15pthreads_opaqueIPjESaIS2_EE9_M_insertIIS2_EEEvSt14_List_iteratorIS2_EDpOT_ @220
    _ZNSt4listI15pthreads_opaqueIPjESaIS2_EE9push_backEOS2_ @221
    _ZNSt4listI15pthreads_opaqueIPjESaIS2_EEC2Ev @222
    _ZNSt4listI15pthreads_opaqueIPjESaIS2_EED2Ev @223
    _ZNSt4listI15pthreads_opaqueIPvESaIS2_EE14_M_create_nodeIIS2_EEEPSt10_List_nodeIS2_EDpOT_ @224
    _ZNSt4listI15pthreads_opaqueIPvESaIS2_EE3endEv @225
    _ZNSt4listI15pthreads_opaqueIPvESaIS2_EE5beginEv @226
    _ZNSt4listI15pthreads_opaqueIPvESaIS2_EE5eraseESt14_List_iteratorIS2_E @227
    _ZNSt4listI15pthreads_opaqueIPvESaIS2_EE8_M_eraseESt14_List_iteratorIS2_E @228
    _ZNSt4listI15pthreads_opaqueIPvESaIS2_EE9_M_insertIIS2_EEEvSt14_List_iteratorIS2_EDpOT_ @229
    _ZNSt4listI15pthreads_opaqueIPvESaIS2_EE9push_backEOS2_ @230
    _ZNSt4listI15pthreads_opaqueIPvESaIS2_EEC2Ev @231
    _ZNSt4listI15pthreads_opaqueIPvESaIS2_EED2Ev @232
    _ZNSt8__detail4_ModIjLj0ELj1ELj0ELb1ELb0EE6__calcEj @233
    _ZNSt8__detail4_ModIjLj624ELj1ELj0ELb1ELb1EE6__calcEj @234
    _ZNSt8__detail5__modIjLj0ELj1ELj0EEET_S1_ @235
    _ZNSt8__detail5__modIjLj624ELj1ELj0EEET_S1_ @236
    _ZNSt8__detail8_AdaptorISt23mersenne_twister_engineIjLj32ELj624ELj397ELj31ELj2567483615ELj11ELj4294967295ELj7ELj2636928640ELj15ELj4022730752ELj18ELj1812433253EEdEC1ERS2_ @237
    _ZNSt8__detail8_AdaptorISt23mersenne_twister_engineIjLj32ELj624ELj397ELj31ELj2567483615ELj11ELj4294967295ELj7ELj2636928640ELj15ELj4022730752ELj18ELj1812433253EEdEclEv @238
    _ZNSt8iteratorISt19output_iterator_tagvvvvEC2Ev @239
    _ZNSt9exceptionC2Ev @240
    _ZSt11__addressofI15pthreads_opaqueIPjEEPT_RS3_ @241
    _ZSt11__addressofI15pthreads_opaqueIPvEEPT_RS3_ @242
    _ZSt13back_inserterISsESt20back_insert_iteratorIT_ERS1_ @243
    _ZSt18generate_canonicalIdLj53ESt23mersenne_twister_engineIjLj32ELj624ELj397ELj31ELj2567483615ELj11ELj4294967295ELj7ELj2636928640ELj15ELj4022730752ELj18ELj1812433253EEET_RT1_ @244
    _ZSt3absd @245
    _ZSt3loge @246
    _ZSt3maxIdERKT_S2_S2_ @247
    _ZSt3maxIjERKT_S2_S2_ @248
    _ZSt3minIjERKT_S2_S2_ @249
    _ZSt4moveIR15pthreads_opaqueIPjEEONSt16remove_referenceIT_E4typeEOS5_ @250
    _ZSt4moveIR15pthreads_opaqueIPvEEONSt16remove_referenceIT_E4typeEOS5_ @251
    _ZSt4moveIRSsEONSt16remove_referenceIT_E4typeEOS2_ @252
    _ZSt4moveIRcEONSt16remove_referenceIT_E4typeEOS2_ @253
    _ZSt7forwardI15pthreads_opaqueIPjEEOT_RNSt16remove_referenceIS3_E4typeE @254
    _ZSt7forwardI15pthreads_opaqueIPvEEOT_RNSt16remove_referenceIS3_E4typeE @255
    _ZSteqIcSt11char_traitsIcESaIcEEbRKSbIT_T0_T1_EPKS3_ @256
    _ZStorSt13_Ios_OpenmodeS_ @257
    _ZStplIcSt11char_traitsIcESaIcEESbIT_T0_T1_EOS6_PKS3_ @258
    _ZStplIcSt11char_traitsIcESaIcEESbIT_T0_T1_EPKS3_OS6_ @259
    _ZStplIcSt11char_traitsIcESaIcEESbIT_T0_T1_ERKS6_OS6_ @260
    _ZStplIcSt11char_traitsIcESaIcEESbIT_T0_T1_ERKS6_S8_ @261
    _ZStplIcSt11char_traitsIcESaIcEESbIT_T0_T1_ES3_RKS6_ @262
    _ZTIN4utf812invalid_utf8E @263 DATA
    _ZTIN4utf813invalid_utf16E @264 DATA
    _ZTIN4utf815not_enough_roomE @265 DATA
    _ZTIN4utf818invalid_code_pointE @266 DATA
    _ZTIN4utf89exceptionE @267 DATA
    _ZTISt9exception @268 DATA
    _ZTSN4utf812invalid_utf8E @269 DATA
    _ZTSN4utf813invalid_utf16E @270 DATA
    _ZTSN4utf815not_enough_roomE @271 DATA
    _ZTSN4utf818invalid_code_pointE @272 DATA
    _ZTSN4utf89exceptionE @273 DATA
    _ZTSSt9exception @274 DATA
    _ZTVN4utf812invalid_utf8E @275 DATA
    _ZTVN4utf813invalid_utf16E @276 DATA
    _ZTVN4utf815not_enough_roomE @277 DATA
    _ZTVN4utf818invalid_code_pointE @278 DATA
    _ZTVN4utf89exceptionE @279 DATA
    _ZZN4utf815replace_invalidIN9__gnu_cxx17__normal_iteratorIPKcSsEESt20back_insert_iteratorISsEEET0_T_S9_S8_E18replacement_marker @280 DATA
    _ZnwjPv @281
    printHello @282
