EXPORTS
    _Z12helperUIDrawPv @1
    _Z14helperUIUpdatePv @2
    _Z21helperUIProcessEventsPv @3
    _ZN10InputMouse14GetCoordinatesEv @4
    _ZN10InputMouse17ChangeCoordinatesEiii @5
    _ZN10InputMouseC1Ev @6
    _ZN10InputMouseC2Ev @7
    _ZN13InputKeyboard10feedBufferERSs @8
    _ZN13InputKeyboard13StopTextInputEv @9
    _ZN13InputKeyboard14StartTextInputEv @10
    _ZN13InputKeyboard14toggleTextModeEv @11
    _ZN13InputKeyboard7getTextEv @12
    _ZN13InputKeyboardC1Ev @13
    _ZN13InputKeyboardC2Ev @14
    _ZN13InputKeyboardD2Ev @15
    _ZN16BinarySearchTreeIj7KeyNodeE10insertNodeERPNS1_8TreeNodeERKjRKS0_ @16
    _ZN16BinarySearchTreeIj7KeyNodeE10removeNodeERPNS1_8TreeNodeERKj @17
    _ZN16BinarySearchTreeIj7KeyNodeE11getContentsEv @18
    _ZN16BinarySearchTreeIj7KeyNodeE12rem_swapNodeERPNS1_8TreeNodeES4_ @19
    _ZN16BinarySearchTreeIj7KeyNodeE6insertERKjRKS0_ @20
    _ZN16BinarySearchTreeIj7KeyNodeE6removeERKj @21
    _ZN16BinarySearchTreeIj7KeyNodeE8TreeNodeC1ERKjRKS0_PS2_S7_ @22
    _ZN16BinarySearchTreeIj7KeyNodeE8TreeNodeD1Ev @23
    _ZN16BinarySearchTreeIj7KeyNodeE8dumpNodeEPNS1_8TreeNodeERSt6vectorIS0_SaIS0_EE @24
    _ZN16BinarySearchTreeIj7KeyNodeE8freeTreeEPNS1_8TreeNodeE @25
    _ZN16BinarySearchTreeIj7KeyNodeE9getValRefEPNS1_8TreeNodeERKj @26
    _ZN16BinarySearchTreeIj7KeyNodeEC1Ev @27
    _ZN16BinarySearchTreeIj7KeyNodeED1Ev @28
    _ZN16BinarySearchTreeIj7KeyNodeEixERKj @29
    _ZN16BinarySearchTreeIjP2UIE10insertNodeERPNS2_8TreeNodeERKjRKS1_ @30
    _ZN16BinarySearchTreeIjP2UIE10removeNodeERPNS2_8TreeNodeERKj @31
    _ZN16BinarySearchTreeIjP2UIE11getContentsEv @32
    _ZN16BinarySearchTreeIjP2UIE12rem_swapNodeERPNS2_8TreeNodeES5_ @33
    _ZN16BinarySearchTreeIjP2UIE6insertERKjRKS1_ @34
    _ZN16BinarySearchTreeIjP2UIE6removeERKj @35
    _ZN16BinarySearchTreeIjP2UIE8TreeNodeC1ERKjRKS1_PS3_S8_ @36
    _ZN16BinarySearchTreeIjP2UIE8dumpNodeEPNS2_8TreeNodeERSt6vectorIS1_SaIS1_EE @37
    _ZN16BinarySearchTreeIjP2UIE8freeTreeEPNS2_8TreeNodeE @38
    _ZN16BinarySearchTreeIjP2UIEC1Ev @39
    _ZN16BinarySearchTreeIjP2UIED1Ev @40
    _ZN5Input11UpdateInputEP9SDL_Event @41
    _ZN5Input12deleteScriptEv @42
    _ZN5Input13LoadKeyScriptEPKc @43
    _ZN5Input14ProcessUIInputEP6ButtonP7textbox @44
    _ZN5Input15SaveKeyBindingsEj @45
    _ZN5Input16ChangeKeyBindingEjj @46
    _ZN5Input16ProcessUnitInputEP4Unit @47
    _ZN5Input22LoadCurrentKeyBindingsEj @48
    _ZN5Input22LoadDefaultKeyBindingsEPKc @49
    _ZN5InputC1EP4Game @50
    _ZN5InputC2EP4Game @51
    _ZN5InputD1Ev @52
    _ZN5InputD2Ev @53
    _ZN7KeyNodeC1EOS_ @54
    _ZN7KeyNodeC1ERKS_ @55
    _ZN7KeyNodeC1EjRKSs @56
    _ZN7KeyNodeC1Ev @57
    _ZN7KeyNodeD1Ev @58
    _ZN7KeyNodeaSERKS_ @59
    _ZN9UIManager10RegisterUIEPKc @60
    _ZN9UIManager10uiIDExistsEj @61
    _ZN9UIManager12FindUIByNameERKSs @62
    _ZN9UIManager12UnregisterUIEj @63
    _ZN9UIManager15UIProcessEventsEv @64
    _ZN9UIManager5GetUIEj @65
    _ZN9UIManager6UIDrawEv @66
    _ZN9UIManager8UIUpdateEv @67
    _ZN9UIManager9initUISysEv @68
    _ZN9UIManagerC1EP4Game @69
    _ZN9UIManagerC2EP4Game @70
    _ZN9UIManagerD1Ev @71
    _ZN9UIManagerD2Ev @72
    _ZN9__gnu_cxx13new_allocatorI7KeyNodeE10deallocateEPS1_j @73
    _ZN9__gnu_cxx13new_allocatorI7KeyNodeE7destroyIS1_EEvPT_ @74
    _ZN9__gnu_cxx13new_allocatorI7KeyNodeE8allocateEjPKv @75
    _ZN9__gnu_cxx13new_allocatorI7KeyNodeE9constructIS1_IRKS1_EEEvPT_DpOT0_ @76
    _ZN9__gnu_cxx13new_allocatorI7KeyNodeEC2Ev @77
    _ZN9__gnu_cxx13new_allocatorI7KeyNodeED2Ev @78
    _ZN9__gnu_cxx13new_allocatorIP2UIE10deallocateEPS2_j @79
    _ZN9__gnu_cxx13new_allocatorIP2UIE7destroyIS2_EEvPT_ @80
    _ZN9__gnu_cxx13new_allocatorIP2UIE8allocateEjPKv @81
    _ZN9__gnu_cxx13new_allocatorIP2UIE9constructIS2_IRKS2_EEEvPT_DpOT0_ @82
    _ZN9__gnu_cxx13new_allocatorIP2UIEC2Ev @83
    _ZN9__gnu_cxx13new_allocatorIP2UIED2Ev @84
    _ZN9__gnu_cxx13new_allocatorISt13_Rb_tree_nodeISt4pairIKtSsEEE10deallocateEPS5_j @85
    _ZN9__gnu_cxx13new_allocatorISt13_Rb_tree_nodeISt4pairIKtSsEEE7destroyIS5_EEvPT_ @86
    _ZN9__gnu_cxx13new_allocatorISt13_Rb_tree_nodeISt4pairIKtSsEEE8allocateEjPKv @87
    _ZN9__gnu_cxx13new_allocatorISt13_Rb_tree_nodeISt4pairIKtSsEEE9constructIS5_IRKS4_EEEvPT_DpOT0_ @88
    _ZN9__gnu_cxx13new_allocatorISt13_Rb_tree_nodeISt4pairIKtSsEEEC2ERKS6_ @89
    _ZN9__gnu_cxx13new_allocatorISt13_Rb_tree_nodeISt4pairIKtSsEEEC2Ev @90
    _ZN9__gnu_cxx13new_allocatorISt13_Rb_tree_nodeISt4pairIKtSsEEED2Ev @91
    _ZN9__gnu_cxx13new_allocatorISt4pairIKtSsEEC2ERKS4_ @92
    _ZN9__gnu_cxx13new_allocatorISt4pairIKtSsEEC2Ev @93
    _ZN9__gnu_cxx13new_allocatorISt4pairIKtSsEED2Ev @94
    _ZN9raw_inputC1ERKS_ @95
    _ZN9raw_inputC1Ev @96
    _ZN9raw_inputD1Ev @97
    _ZNK13InputKeyboard11GetTextModeEv @98
    _ZNK16BinarySearchTreeIj7KeyNodeE5emptyEv @99
    _ZNK16BinarySearchTreeIjP2UIE10searchNodeEPNS2_8TreeNodeERKjRS1_ @100
    _ZNK16BinarySearchTreeIjP2UIE5emptyEv @101
    _ZNK16BinarySearchTreeIjP2UIE6searchERKjRS1_ @102
    _ZNK5Input10GetKeyNameEj @103
    _ZNK5Input11GetRawInputEv @104
    _ZNK9__gnu_cxx13new_allocatorI7KeyNodeE8max_sizeEv @105
    _ZNK9__gnu_cxx13new_allocatorIP2UIE8max_sizeEv @106
    _ZNK9__gnu_cxx13new_allocatorISt13_Rb_tree_nodeISt4pairIKtSsEEE8max_sizeEv @107
    _ZNKSt10_Select1stISt4pairIKtSsEEclERKS2_ @108
    _ZNKSt12_Vector_baseI7KeyNodeSaIS0_EE19_M_get_Tp_allocatorEv @109
    _ZNKSt12_Vector_baseIP2UISaIS1_EE19_M_get_Tp_allocatorEv @110
    _ZNKSt13move_iteratorIP7KeyNodeE4baseEv @111
    _ZNKSt13move_iteratorIP7KeyNodeEdeEv @112
    _ZNKSt13move_iteratorIPP2UIE4baseEv @113
    _ZNKSt16initializer_listISt4pairIKtSsEE3endEv @114
    _ZNKSt16initializer_listISt4pairIKtSsEE4sizeEv @115
    _ZNKSt16initializer_listISt4pairIKtSsEE5beginEv @116
    _ZNKSt17_Rb_tree_iteratorISt4pairIKtSsEEeqERKS3_ @117
    _ZNKSt23_Rb_tree_const_iteratorISt4pairIKtSsEE13_M_const_castEv @118
    _ZNKSt4lessItEclERKtS2_ @119
    _ZNKSt6vectorI7KeyNodeSaIS0_EE12_M_check_lenEjPKc @120
    _ZNKSt6vectorI7KeyNodeSaIS0_EE4sizeEv @121
    _ZNKSt6vectorI7KeyNodeSaIS0_EE8capacityEv @122
    _ZNKSt6vectorI7KeyNodeSaIS0_EE8max_sizeEv @123
    _ZNKSt6vectorIP2UISaIS1_EE12_M_check_lenEjPKc @124
    _ZNKSt6vectorIP2UISaIS1_EE4sizeEv @125
    _ZNKSt6vectorIP2UISaIS1_EE8capacityEv @126
    _ZNKSt6vectorIP2UISaIS1_EE8max_sizeEv @127
    _ZNKSt8_Rb_treeItSt4pairIKtSsESt10_Select1stIS2_ESt4lessItESaIS2_EE4sizeEv @128
    _ZNSaI7KeyNodeEC2Ev @129
    _ZNSaI7KeyNodeED2Ev @130
    _ZNSaIP2UIEC2Ev @131
    _ZNSaIP2UIED2Ev @132
    _ZNSaISt13_Rb_tree_nodeISt4pairIKtSsEEEC1IS2_EERKSaIT_E @133
    _ZNSaISt13_Rb_tree_nodeISt4pairIKtSsEEEC2ERKS4_ @134
    _ZNSaISt13_Rb_tree_nodeISt4pairIKtSsEEED1Ev @135
    _ZNSaISt13_Rb_tree_nodeISt4pairIKtSsEEED2Ev @136
    _ZNSaISt4pairIKtSsEEC1ERKS2_ @137
    _ZNSaISt4pairIKtSsEEC1Ev @138
    _ZNSaISt4pairIKtSsEED1Ev @139
    _ZNSt10_Iter_baseIPP2UILb0EE7_S_baseES2_ @140
    _ZNSt10_Iter_baseISt13move_iteratorIPP2UIELb1EE7_S_baseES4_ @141
    _ZNSt11__copy_moveILb1ELb1ESt26random_access_iterator_tagE8__copy_mIP2UIEEPT_PKS5_S8_S6_ @142
    _ZNSt11char_traitsIcE7compareEPKcS2_j @143
    _ZNSt12_Destroy_auxILb0EE9__destroyIP7KeyNodeEEvT_S4_ @144
    _ZNSt12_Destroy_auxILb1EE9__destroyIPP2UIEEvT_S5_ @145
    _ZNSt12_Vector_baseI7KeyNodeSaIS0_EE11_M_allocateEj @146
    _ZNSt12_Vector_baseI7KeyNodeSaIS0_EE12_Vector_implC1Ev @147
    _ZNSt12_Vector_baseI7KeyNodeSaIS0_EE12_Vector_implD1Ev @148
    _ZNSt12_Vector_baseI7KeyNodeSaIS0_EE13_M_deallocateEPS0_j @149
    _ZNSt12_Vector_baseI7KeyNodeSaIS0_EE19_M_get_Tp_allocatorEv @150
    _ZNSt12_Vector_baseI7KeyNodeSaIS0_EEC2Ev @151
    _ZNSt12_Vector_baseI7KeyNodeSaIS0_EED2Ev @152
    _ZNSt12_Vector_baseIP2UISaIS1_EE11_M_allocateEj @153
    _ZNSt12_Vector_baseIP2UISaIS1_EE12_Vector_implC1Ev @154
    _ZNSt12_Vector_baseIP2UISaIS1_EE12_Vector_implD1Ev @155
    _ZNSt12_Vector_baseIP2UISaIS1_EE13_M_deallocateEPS1_j @156
    _ZNSt12_Vector_baseIP2UISaIS1_EE19_M_get_Tp_allocatorEv @157
    _ZNSt12_Vector_baseIP2UISaIS1_EEC2Ev @158
    _ZNSt12_Vector_baseIP2UISaIS1_EED2Ev @159
    _ZNSt13_Rb_tree_nodeISt4pairIKtSsEEC1IIRKS2_EEEDpOT_ @160
    _ZNSt13_Rb_tree_nodeISt4pairIKtSsEED1Ev @161
    _ZNSt13move_iteratorIP7KeyNodeEC1ES1_ @162
    _ZNSt13move_iteratorIP7KeyNodeEppEv @163
    _ZNSt13move_iteratorIPP2UIEC1ES2_ @164
    _ZNSt16allocator_traitsISaI7KeyNodeEE10_S_destroyIS0_EENSt9enable_ifIXsrNS2_16__destroy_helperIT_EE5valueEvE4typeERS1_PS6_ @165
    _ZNSt16allocator_traitsISaI7KeyNodeEE11_S_max_sizeIKS1_EENSt9enable_ifIXsrNS2_16__maxsize_helperIT_EE5valueEjE4typeERS7_ @166
    _ZNSt16allocator_traitsISaI7KeyNodeEE12_S_constructIS0_IRKS0_EEENSt9enable_ifIXsrNS2_18__construct_helperIT_IDpT0_EEE5valueEvE4typeERS1_PS8_DpOS9_ @167
    _ZNSt16allocator_traitsISaI7KeyNodeEE7destroyIS0_EEvRS1_PT_ @168
    _ZNSt16allocator_traitsISaI7KeyNodeEE8max_sizeERKS1_ @169
    _ZNSt16allocator_traitsISaI7KeyNodeEE9constructIS0_IRKS0_EEEvRS1_PT_DpOT0_ @170
    _ZNSt16allocator_traitsISaIP2UIEE10_S_destroyIS1_EENSt9enable_ifIXsrNS3_16__destroy_helperIT_EE5valueEvE4typeERS2_PS7_ @171
    _ZNSt16allocator_traitsISaIP2UIEE11_S_max_sizeIKS2_EENSt9enable_ifIXsrNS3_16__maxsize_helperIT_EE5valueEjE4typeERS8_ @172
    _ZNSt16allocator_traitsISaIP2UIEE12_S_constructIS1_IRKS1_EEENSt9enable_ifIXsrNS3_18__construct_helperIT_IDpT0_EEE5valueEvE4typeERS2_PS9_DpOSA_ @173
    _ZNSt16allocator_traitsISaIP2UIEE7destroyIS1_EEvRS2_PT_ @174
    _ZNSt16allocator_traitsISaIP2UIEE8max_sizeERKS2_ @175
    _ZNSt16allocator_traitsISaIP2UIEE9constructIS1_IRKS1_EEEvRS2_PT_DpOT0_ @176
    _ZNSt17_Rb_tree_iteratorISt4pairIKtSsEEC1EPSt13_Rb_tree_nodeIS2_E @177
    _ZNSt17_Rb_tree_iteratorISt4pairIKtSsEEmmEv @178
    _ZNSt20__uninitialized_copyILb0EE13__uninit_copyISt13move_iteratorIP7KeyNodeES4_EET0_T_S7_S6_ @179
    _ZNSt20__uninitialized_copyILb1EE13__uninit_copyISt13move_iteratorIPP2UIES5_EET0_T_S8_S7_ @180
    _ZNSt23_Rb_tree_const_iteratorISt4pairIKtSsEEC1ERKSt17_Rb_tree_iteratorIS2_E @181
    _ZNSt23_Rb_tree_const_iteratorISt4pairIKtSsEEmmEv @182
    _ZNSt23_Rb_tree_const_iteratorISt4pairIKtSsEEppEv @183
    _ZNSt3mapItSsSt4lessItESaISt4pairIKtSsEEEC1ESt16initializer_listIS4_ERKS1_RKS5_ @184
    _ZNSt3mapItSsSt4lessItESaISt4pairIKtSsEEED1Ev @185
    _ZNSt4pairIKtSsEC1ERKS1_ @186
    _ZNSt4pairIKtSsEC1I14StatementTypesRA10_KcvEEOT_OT0_ @187
    _ZNSt4pairIKtSsEC1I14StatementTypesRA11_KcvEEOT_OT0_ @188
    _ZNSt4pairIKtSsEC1I14StatementTypesRA12_KcvEEOT_OT0_ @189
    _ZNSt4pairIKtSsEC1I14StatementTypesRA13_KcvEEOT_OT0_ @190
    _ZNSt4pairIKtSsEC1I14StatementTypesRA15_KcvEEOT_OT0_ @191
    _ZNSt4pairIKtSsEC1I14StatementTypesRA17_KcvEEOT_OT0_ @192
    _ZNSt4pairIKtSsEC1I14StatementTypesRA18_KcvEEOT_OT0_ @193
    _ZNSt4pairIKtSsEC1I14StatementTypesRA5_KcvEEOT_OT0_ @194
    _ZNSt4pairIKtSsEC1I14StatementTypesRA6_KcvEEOT_OT0_ @195
    _ZNSt4pairIKtSsEC1I14StatementTypesRA7_KcvEEOT_OT0_ @196
    _ZNSt4pairIKtSsEC1I14StatementTypesRA8_KcvEEOT_OT0_ @197
    _ZNSt4pairIKtSsEC1I14StatementTypesRA9_KcvEEOT_OT0_ @198
    _ZNSt4pairIKtSsED1Ev @199
    _ZNSt4pairISt17_Rb_tree_iteratorIS_IKtSsEEbEC1IRS3_bvEEOT_OT0_ @200
    _ZNSt4pairISt17_Rb_tree_iteratorIS_IKtSsEEbEC1IS3_bvEEOT_OT0_ @201
    _ZNSt6vectorI7KeyNodeSaIS0_EE19_M_emplace_back_auxIIRKS0_EEEvDpOT_ @202
    _ZNSt6vectorI7KeyNodeSaIS0_EE20_M_allocate_and_copyISt13move_iteratorIPS0_EEES5_jT_S7_ @203
    _ZNSt6vectorI7KeyNodeSaIS0_EE7reserveEj @204
    _ZNSt6vectorI7KeyNodeSaIS0_EE9push_backERKS0_ @205
    _ZNSt6vectorI7KeyNodeSaIS0_EEC1Ev @206
    _ZNSt6vectorI7KeyNodeSaIS0_EED1Ev @207
    _ZNSt6vectorI7KeyNodeSaIS0_EEixEj @208
    _ZNSt6vectorIP2UISaIS1_EE19_M_emplace_back_auxIIRKS1_EEEvDpOT_ @209
    _ZNSt6vectorIP2UISaIS1_EE20_M_allocate_and_copyISt13move_iteratorIPS1_EEES6_jT_S8_ @210
    _ZNSt6vectorIP2UISaIS1_EE7reserveEj @211
    _ZNSt6vectorIP2UISaIS1_EE9push_backERKS1_ @212
    _ZNSt6vectorIP2UISaIS1_EEC1Ev @213
    _ZNSt6vectorIP2UISaIS1_EED1Ev @214
    _ZNSt6vectorIP2UISaIS1_EEixEj @215
    _ZNSt8_Rb_treeItSt4pairIKtSsESt10_Select1stIS2_ESt4lessItESaIS2_EE10_M_insert_IRKS2_EESt17_Rb_tree_iteratorIS2_EPKSt18_Rb_tree_node_baseSG_OT_ @216
    _ZNSt8_Rb_treeItSt4pairIKtSsESt10_Select1stIS2_ESt4lessItESaIS2_EE11_M_get_nodeEv @217
    _ZNSt8_Rb_treeItSt4pairIKtSsESt10_Select1stIS2_ESt4lessItESaIS2_EE11_M_leftmostEv @218
    _ZNSt8_Rb_treeItSt4pairIKtSsESt10_Select1stIS2_ESt4lessItESaIS2_EE11_M_put_nodeEPSt13_Rb_tree_nodeIS2_E @219
    _ZNSt8_Rb_treeItSt4pairIKtSsESt10_Select1stIS2_ESt4lessItESaIS2_EE12_M_rightmostEv @220
    _ZNSt8_Rb_treeItSt4pairIKtSsESt10_Select1stIS2_ESt4lessItESaIS2_EE13_Rb_tree_implIS6_Lb1EE13_M_initializeEv @221
    _ZNSt8_Rb_treeItSt4pairIKtSsESt10_Select1stIS2_ESt4lessItESaIS2_EE13_Rb_tree_implIS6_Lb1EEC1ERKS6_OSaISt13_Rb_tree_nodeIS2_EE @222
    _ZNSt8_Rb_treeItSt4pairIKtSsESt10_Select1stIS2_ESt4lessItESaIS2_EE13_Rb_tree_implIS6_Lb1EED1Ev @223
    _ZNSt8_Rb_treeItSt4pairIKtSsESt10_Select1stIS2_ESt4lessItESaIS2_EE14_M_create_nodeIIRKS2_EEEPSt13_Rb_tree_nodeIS2_EDpOT_ @224
    _ZNSt8_Rb_treeItSt4pairIKtSsESt10_Select1stIS2_ESt4lessItESaIS2_EE15_M_destroy_nodeEPSt13_Rb_tree_nodeIS2_E @225
    _ZNSt8_Rb_treeItSt4pairIKtSsESt10_Select1stIS2_ESt4lessItESaIS2_EE16_M_insert_uniqueIPKS2_EEvT_SC_ @226
    _ZNSt8_Rb_treeItSt4pairIKtSsESt10_Select1stIS2_ESt4lessItESaIS2_EE16_M_insert_uniqueIRKS2_EES0_ISt17_Rb_tree_iteratorIS2_EbEOT_ @227
    _ZNSt8_Rb_treeItSt4pairIKtSsESt10_Select1stIS2_ESt4lessItESaIS2_EE17_M_insert_unique_IRKS2_EESt17_Rb_tree_iteratorIS2_ESt23_Rb_tree_const_iteratorIS2_EOT_ @228
    _ZNSt8_Rb_treeItSt4pairIKtSsESt10_Select1stIS2_ESt4lessItESaIS2_EE21_M_get_Node_allocatorEv @229
    _ZNSt8_Rb_treeItSt4pairIKtSsESt10_Select1stIS2_ESt4lessItESaIS2_EE3endEv @230
    _ZNSt8_Rb_treeItSt4pairIKtSsESt10_Select1stIS2_ESt4lessItESaIS2_EE5beginEv @231
    _ZNSt8_Rb_treeItSt4pairIKtSsESt10_Select1stIS2_ESt4lessItESaIS2_EE6_M_endEv @232
    _ZNSt8_Rb_treeItSt4pairIKtSsESt10_Select1stIS2_ESt4lessItESaIS2_EE6_S_keyEPKSt13_Rb_tree_nodeIS2_E @233
    _ZNSt8_Rb_treeItSt4pairIKtSsESt10_Select1stIS2_ESt4lessItESaIS2_EE6_S_keyEPKSt18_Rb_tree_node_base @234
    _ZNSt8_Rb_treeItSt4pairIKtSsESt10_Select1stIS2_ESt4lessItESaIS2_EE7_S_leftEPSt18_Rb_tree_node_base @235
    _ZNSt8_Rb_treeItSt4pairIKtSsESt10_Select1stIS2_ESt4lessItESaIS2_EE8_M_beginEv @236
    _ZNSt8_Rb_treeItSt4pairIKtSsESt10_Select1stIS2_ESt4lessItESaIS2_EE8_M_eraseEPSt13_Rb_tree_nodeIS2_E @237
    _ZNSt8_Rb_treeItSt4pairIKtSsESt10_Select1stIS2_ESt4lessItESaIS2_EE8_S_rightEPKSt18_Rb_tree_node_base @238
    _ZNSt8_Rb_treeItSt4pairIKtSsESt10_Select1stIS2_ESt4lessItESaIS2_EE8_S_rightEPSt18_Rb_tree_node_base @239
    _ZNSt8_Rb_treeItSt4pairIKtSsESt10_Select1stIS2_ESt4lessItESaIS2_EE8_S_valueEPKSt13_Rb_tree_nodeIS2_E @240
    _ZNSt8_Rb_treeItSt4pairIKtSsESt10_Select1stIS2_ESt4lessItESaIS2_EE8_S_valueEPKSt18_Rb_tree_node_base @241
    _ZNSt8_Rb_treeItSt4pairIKtSsESt10_Select1stIS2_ESt4lessItESaIS2_EEC1ERKS6_RKS7_ @242
    _ZNSt8_Rb_treeItSt4pairIKtSsESt10_Select1stIS2_ESt4lessItESaIS2_EED1Ev @243
    _ZSt10_ConstructI7KeyNodeIS0_EEvPT_DpOT0_ @244
    _ZSt11__addressofI7KeyNodeEPT_RS1_ @245
    _ZSt12__miter_baseISt13move_iteratorIPP2UIEENSt11_Miter_baseIT_E13iterator_typeES6_ @246
    _ZSt12__niter_baseIPP2UIENSt11_Niter_baseIT_E13iterator_typeES4_ @247
    _ZSt13__copy_move_aILb1EPP2UIS2_ET1_T0_S4_S3_ @248
    _ZSt14__copy_move_a2ILb1EPP2UIS2_ET1_T0_S4_S3_ @249
    _ZSt18uninitialized_copyISt13move_iteratorIP7KeyNodeES2_ET0_T_S5_S4_ @250
    _ZSt18uninitialized_copyISt13move_iteratorIPP2UIES3_ET0_T_S6_S5_ @251
    _ZSt22__uninitialized_copy_aISt13move_iteratorIP7KeyNodeES2_S1_ET0_T_S5_S4_RSaIT1_E @252
    _ZSt22__uninitialized_copy_aISt13move_iteratorIPP2UIES3_S2_ET0_T_S6_S5_RSaIT1_E @253
    _ZSt32__make_move_if_noexcept_iteratorIP7KeyNodeSt13move_iteratorIS1_EET0_T_ @254
    _ZSt32__make_move_if_noexcept_iteratorIPP2UISt13move_iteratorIS2_EET0_T_ @255
    _ZSt34__uninitialized_move_if_noexcept_aIP7KeyNodeS1_SaIS0_EET0_T_S4_S3_RT1_ @256
    _ZSt34__uninitialized_move_if_noexcept_aIPP2UIS2_SaIS1_EET0_T_S5_S4_RT1_ @257
    _ZSt3maxIjERKT_S2_S2_ @258
    _ZSt4copyISt13move_iteratorIPP2UIES3_ET0_T_S6_S5_ @259
    _ZSt4moveIR7KeyNodeEONSt16remove_referenceIT_E4typeEOS3_ @260
    _ZSt4moveIRSaISt13_Rb_tree_nodeISt4pairIKtSsEEEEONSt16remove_referenceIT_E4typeEOS8_ @261
    _ZSt4moveIRSsEONSt16remove_referenceIT_E4typeEOS2_ @262
    _ZSt7forwardI14StatementTypesEOT_RNSt16remove_referenceIS1_E4typeE @263
    _ZSt7forwardI7KeyNodeEOT_RNSt16remove_referenceIS1_E4typeE @264
    _ZSt7forwardIRA10_KcEOT_RNSt16remove_referenceIS3_E4typeE @265
    _ZSt7forwardIRA11_KcEOT_RNSt16remove_referenceIS3_E4typeE @266
    _ZSt7forwardIRA12_KcEOT_RNSt16remove_referenceIS3_E4typeE @267
    _ZSt7forwardIRA13_KcEOT_RNSt16remove_referenceIS3_E4typeE @268
    _ZSt7forwardIRA15_KcEOT_RNSt16remove_referenceIS3_E4typeE @269
    _ZSt7forwardIRA17_KcEOT_RNSt16remove_referenceIS3_E4typeE @270
    _ZSt7forwardIRA18_KcEOT_RNSt16remove_referenceIS3_E4typeE @271
    _ZSt7forwardIRA5_KcEOT_RNSt16remove_referenceIS3_E4typeE @272
    _ZSt7forwardIRA6_KcEOT_RNSt16remove_referenceIS3_E4typeE @273
    _ZSt7forwardIRA7_KcEOT_RNSt16remove_referenceIS3_E4typeE @274
    _ZSt7forwardIRA8_KcEOT_RNSt16remove_referenceIS3_E4typeE @275
    _ZSt7forwardIRA9_KcEOT_RNSt16remove_referenceIS3_E4typeE @276
    _ZSt7forwardIRK7KeyNodeEOT_RNSt16remove_referenceIS3_E4typeE @277
    _ZSt7forwardIRKP2UIEOT_RNSt16remove_referenceIS4_E4typeE @278
    _ZSt7forwardIRKSt4pairIKtSsEEOT_RNSt16remove_referenceIS5_E4typeE @279
    _ZSt7forwardIRSt17_Rb_tree_iteratorISt4pairIKtSsEEEOT_RNSt16remove_referenceIS6_E4typeE @280
    _ZSt7forwardISt17_Rb_tree_iteratorISt4pairIKtSsEEEOT_RNSt16remove_referenceIS5_E4typeE @281
    _ZSt7forwardIbEOT_RNSt16remove_referenceIS0_E4typeE @282
    _ZSt8_DestroyI7KeyNodeEvPT_ @283
    _ZSt8_DestroyIP7KeyNodeEvT_S2_ @284
    _ZSt8_DestroyIP7KeyNodeS0_EvT_S2_RSaIT0_E @285
    _ZSt8_DestroyIPP2UIEvT_S3_ @286
    _ZSt8_DestroyIPP2UIS1_EvT_S3_RSaIT0_E @287
    _ZSteqIP7KeyNodeEbRKSt13move_iteratorIT_ES6_ @288
    _ZSteqIcEN9__gnu_cxx11__enable_ifIXsrSt9__is_charIT_E7__valueEbE6__typeERKSbIS3_St11char_traitsIS3_ESaIS3_EESC_ @289
    _ZStneIP7KeyNodeEbRKSt13move_iteratorIT_ES6_ @290
    _ZStplIcSt11char_traitsIcESaIcEESbIT_T0_T1_EOS6_PKS3_ @291
    _ZStplIcSt11char_traitsIcESaIcEESbIT_T0_T1_EOS6_RKS6_ @292
    _ZStplIcSt11char_traitsIcESaIcEESbIT_T0_T1_EOS6_S7_ @293
    _ZStplIcSt11char_traitsIcESaIcEESbIT_T0_T1_EPKS3_OS6_ @294
    _ZdlPvS_ @295
    _ZnwjPv @296
    _get_output_format @297
    _nm___ZN10ScriptWrap7NO_ARGSE @298 DATA
