EXPORTS
    _ZN11UnitManager10DeleteUnitER4Unit @1
    _ZN11UnitManager10PlaySoundsEv @2
    _ZN11UnitManager10RunPhysicsEv @3
    _ZN11UnitManager10UnlockUnitEv @4
    _ZN11UnitManager11SetSDLEventEP9SDL_Event @5
    _ZN11UnitManager13GetUnitByNameERKSs @6
    _ZN11UnitManager14DeleteAllUnitsEv @7
    _ZN11UnitManager14DeleteUnitByIDEj @8
    _ZN11UnitManager14FindNearbyUnitEP4Unit @9
    _ZN11UnitManager16DeleteUnitByNameERKSs @10
    _ZN11UnitManager17SpawnUnitFromFileEPKci @11
    _ZN11UnitManager17SpawnUnitFromListEPKci @12
    _ZN11UnitManager20DeleteAllGameObjectsEv @13
    _ZN11UnitManager20DeleteAllProjectilesEv @14
    _ZN11UnitManager2GCEv @15
    _ZN11UnitManager7GetUnitEj @16
    _ZN11UnitManager7hasUnitERKSs @17
    _ZN11UnitManager7hasUnitEj @18
    _ZN11UnitManager8OnScreenER4Unit @19
    _ZN11UnitManager9DeleteAllEv @20
    _ZN11UnitManager9DrawUnitsEv @21
    _ZN11UnitManager9RunEventsEv @22
    _ZN11UnitManager9SpawnUnitEci10math_pointSsbb @23
    _ZN11UnitManagerC1EP4Game @24
    _ZN11UnitManagerC2EP4Game @25
    _ZN11UnitManagerD1Ev @26
    _ZN11UnitManagerD2Ev @27
    _ZN14ParticleSystem18ClearGameParticlesEv @28
    _ZN14ParticleSystem18ClearUnitParticlesEv @29
    _ZN14ParticleSystem18DeleteGameParticleEj @30
    _ZN14ParticleSystem18DeleteUnitParticleER4Unitj @31
    _ZN14ParticleSystem20GetGameParticleCountEv @32
    _ZN14ParticleSystem20GetUnitParticleCountER4Unit @33
    _ZN14ParticleSystem20RegisterGameParticleERK10math_pointPKcc @34
    _ZN14ParticleSystem20RegisterUnitParticleER4UnitRK10math_pointPKcc @35
    _ZN14ParticleSystem22RenderParticleFromUnitER4Unitj @36
    _ZN14ParticleSystem26RenderAllParticlesFromGameEv @37
    _ZN14ParticleSystem26RenderAllParticlesFromUnitER4Unit @38
    _ZN14ParticleSystem29SetInitialForceOfGameParticleEjd @39
    _ZN14ParticleSystem29SetInitialForceOfUnitParticleER4Unitjd @40
    _ZN14ParticleSystem30RenderGameParticlesByProximityERK10math_pointj @41
    _ZN14ParticleSystem30RenderUnitParticlesByProximityER4Unitj @42
    _ZN14ParticleSystemC1EP4Game @43
    _ZN14ParticleSystemC2EP4Game @44
    _ZN14ParticleSystemD1Ev @45
    _ZN14ParticleSystemD2Ev @46
